
Proyecto2.elf:     file format elf32-littlenios2
Proyecto2.elf
architecture: nios2:r1, flags 0x00000112:
EXEC_P, HAS_SYMS, D_PAGED
start address 0x0200022c

Program Header:
    LOAD off    0x00001020 vaddr 0x02000020 paddr 0x02000020 align 2**12
         filesz 0x0001a9c0 memsz 0x0001ab40 flags rwx
    LOAD off    0x0001c000 vaddr 0x04001000 paddr 0x04001000 align 2**12
         filesz 0x00000000 memsz 0x00000000 flags r-x

Sections:
Idx Name          Size      VMA       LMA       File off  Algn
  0 .entry        00000000  04001000  04001000  0001c000  2**5
                  CONTENTS, ALLOC, LOAD, READONLY, CODE
  1 .exceptions   0000020c  02000020  02000020  00001020  2**2
                  CONTENTS, ALLOC, LOAD, READONLY, CODE
  2 .text         000147b0  0200022c  0200022c  0000122c  2**2
                  CONTENTS, ALLOC, LOAD, READONLY, CODE
  3 .rodata       00004418  020149dc  020149dc  000159dc  2**2
                  CONTENTS, ALLOC, LOAD, READONLY, DATA
  4 .rwdata       00001bec  02018df4  02018df4  00019df4  2**2
                  CONTENTS, ALLOC, LOAD, DATA, SMALL_DATA
  5 .bss          00000180  0201a9e0  0201a9e0  0001b9e0  2**2
                  ALLOC, SMALL_DATA
  6 .sdram        00000000  0201ab60  0201ab60  0001c000  2**0
                  CONTENTS
  7 .epcs         00000000  04001020  04001020  0001c000  2**0
                  CONTENTS
  8 .comment      00000023  00000000  00000000  0001c000  2**0
                  CONTENTS, READONLY
  9 .debug_aranges 00001018  00000000  00000000  0001c028  2**3
                  CONTENTS, READONLY, DEBUGGING
 10 .debug_info   000281a1  00000000  00000000  0001d040  2**0
                  CONTENTS, READONLY, DEBUGGING
 11 .debug_abbrev 0000a142  00000000  00000000  000451e1  2**0
                  CONTENTS, READONLY, DEBUGGING
 12 .debug_line   0000ca49  00000000  00000000  0004f323  2**0
                  CONTENTS, READONLY, DEBUGGING
 13 .debug_frame  000027a8  00000000  00000000  0005bd6c  2**2
                  CONTENTS, READONLY, DEBUGGING
 14 .debug_str    00003edc  00000000  00000000  0005e514  2**0
                  CONTENTS, READONLY, DEBUGGING
 15 .debug_loc    00016ef7  00000000  00000000  000623f0  2**0
                  CONTENTS, READONLY, DEBUGGING
 16 .debug_alt_sim_info 00000040  00000000  00000000  000792e8  2**2
                  CONTENTS, READONLY, DEBUGGING
 17 .debug_ranges 000018a0  00000000  00000000  00079328  2**3
                  CONTENTS, READONLY, DEBUGGING
 18 .thread_model 00000003  00000000  00000000  0007e36e  2**0
                  CONTENTS, READONLY
 19 .cpu          00000003  00000000  00000000  0007e371  2**0
                  CONTENTS, READONLY
 20 .qsys         00000001  00000000  00000000  0007e374  2**0
                  CONTENTS, READONLY
 21 .simulation_enabled 00000001  00000000  00000000  0007e375  2**0
                  CONTENTS, READONLY
 22 .sysid_hash   00000004  00000000  00000000  0007e376  2**0
                  CONTENTS, READONLY
 23 .sysid_base   00000004  00000000  00000000  0007e37a  2**0
                  CONTENTS, READONLY
 24 .sysid_time   00000004  00000000  00000000  0007e37e  2**0
                  CONTENTS, READONLY
 25 .stderr_dev   00000004  00000000  00000000  0007e382  2**0
                  CONTENTS, READONLY
 26 .stdin_dev    00000004  00000000  00000000  0007e386  2**0
                  CONTENTS, READONLY
 27 .stdout_dev   00000004  00000000  00000000  0007e38a  2**0
                  CONTENTS, READONLY
 28 .sopc_system_name 00000005  00000000  00000000  0007e38e  2**0
                  CONTENTS, READONLY
 29 .quartus_project_dir 0000002e  00000000  00000000  0007e393  2**0
                  CONTENTS, READONLY
 30 .jdi          000034fb  00000000  00000000  0007e3c1  2**0
                  CONTENTS, READONLY
 31 .sopcinfo     000686c2  00000000  00000000  000818bc  2**0
                  CONTENTS, READONLY
SYMBOL TABLE:
04001000 l    d  .entry	00000000 .entry
02000020 l    d  .exceptions	00000000 .exceptions
0200022c l    d  .text	00000000 .text
020149dc l    d  .rodata	00000000 .rodata
02018df4 l    d  .rwdata	00000000 .rwdata
0201a9e0 l    d  .bss	00000000 .bss
0201ab60 l    d  .sdram	00000000 .sdram
04001020 l    d  .epcs	00000000 .epcs
00000000 l    d  .comment	00000000 .comment
00000000 l    d  .debug_aranges	00000000 .debug_aranges
00000000 l    d  .debug_info	00000000 .debug_info
00000000 l    d  .debug_abbrev	00000000 .debug_abbrev
00000000 l    d  .debug_line	00000000 .debug_line
00000000 l    d  .debug_frame	00000000 .debug_frame
00000000 l    d  .debug_str	00000000 .debug_str
00000000 l    d  .debug_loc	00000000 .debug_loc
00000000 l    d  .debug_alt_sim_info	00000000 .debug_alt_sim_info
00000000 l    d  .debug_ranges	00000000 .debug_ranges
00000000 l    df *ABS*	00000000 ../Proyecto2_bsp//obj/HAL/src/crt0.o
02000260 l       .text	00000000 alt_after_alt_main
00000000 l    df *ABS*	00000000 alt_irq_handler.c
00000000 l    df *ABS*	00000000 alt_instruction_exception_entry.c
00000000 l    df *ABS*	00000000 hello_world.c
00000000 l    df *ABS*	00000000 max7219.c
00000000 l    df *ABS*	00000000 impure.c
02018df4 l     O .rwdata	00000424 impure_data
00000000 l    df *ABS*	00000000 memcpy.c
00000000 l    df *ABS*	00000000 memset.c
00000000 l    df *ABS*	00000000 printf.c
00000000 l    df *ABS*	00000000 putc.c
00000000 l    df *ABS*	00000000 puts.c
00000000 l    df *ABS*	00000000 rand.c
00000000 l    df *ABS*	00000000 strlen.c
00000000 l    df *ABS*	00000000 time.c
00000000 l    df *ABS*	00000000 vfprintf.c
02018b2a l     O .rodata	00000010 zeroes.4255
02006504 l     F .text	000000bc __sbprintf
02018b3a l     O .rodata	00000010 blanks.4254
00000000 l    df *ABS*	00000000 wbuf.c
00000000 l    df *ABS*	00000000 wsetup.c
00000000 l    df *ABS*	00000000 dtoa.c
02006868 l     F .text	00000228 quorem
00000000 l    df *ABS*	00000000 fflush.c
00000000 l    df *ABS*	00000000 findfp.c
0200844c l     F .text	00000008 __fp_lock
02008454 l     F .text	00000008 __fp_unlock
02008468 l     F .text	0000019c __sinit.part.1
00000000 l    df *ABS*	00000000 mallocr.c
00000000 l    df *ABS*	00000000 fvwrite.c
00000000 l    df *ABS*	00000000 fwalk.c
00000000 l    df *ABS*	00000000 gettimeofdayr.c
00000000 l    df *ABS*	00000000 int_errno.c
00000000 l    df *ABS*	00000000 locale.c
02019238 l     O .rwdata	00000020 lc_ctype_charset
02019218 l     O .rwdata	00000020 lc_message_charset
02019258 l     O .rwdata	00000038 lconv
00000000 l    df *ABS*	00000000 makebuf.c
00000000 l    df *ABS*	00000000 mallocr.c
00000000 l    df *ABS*	00000000 memchr.c
00000000 l    df *ABS*	00000000 memmove.c
00000000 l    df *ABS*	00000000 mprec.c
02018b68 l     O .rodata	0000000c p05.2710
00000000 l    df *ABS*	00000000 mallocr.c
00000000 l    df *ABS*	00000000 s_fpclassify.c
00000000 l    df *ABS*	00000000 sbrkr.c
00000000 l    df *ABS*	00000000 stdio.c
00000000 l    df *ABS*	00000000 strcmp.c
00000000 l    df *ABS*	00000000 vfprintf.c
0200b7ac l     F .text	000000fc __sprint_r.part.0
02018c8c l     O .rodata	00000010 zeroes.4200
02018c9c l     O .rodata	00000010 blanks.4199
0200cbd4 l     F .text	000000bc __sbprintf
00000000 l    df *ABS*	00000000 writer.c
00000000 l    df *ABS*	00000000 closer.c
00000000 l    df *ABS*	00000000 mallocr.c
00000000 l    df *ABS*	00000000 fclose.c
00000000 l    df *ABS*	00000000 fputwc.c
00000000 l    df *ABS*	00000000 fstatr.c
00000000 l    df *ABS*	00000000 isattyr.c
00000000 l    df *ABS*	00000000 lseekr.c
00000000 l    df *ABS*	00000000 readr.c
00000000 l    df *ABS*	00000000 wcrtomb.c
00000000 l    df *ABS*	00000000 wctomb_r.c
00000000 l    df *ABS*	00000000 libgcc2.c
00000000 l    df *ABS*	00000000 libgcc2.c
00000000 l    df *ABS*	00000000 libgcc2.c
00000000 l    df *ABS*	00000000 lib2-divmod.c
0200e1b0 l     F .text	0000006c udivmodsi4
00000000 l    df *ABS*	00000000 lib2-mul.c
00000000 l    df *ABS*	00000000 adddf3.c
00000000 l    df *ABS*	00000000 divdf3.c
00000000 l    df *ABS*	00000000 eqdf2.c
00000000 l    df *ABS*	00000000 gedf2.c
00000000 l    df *ABS*	00000000 ledf2.c
00000000 l    df *ABS*	00000000 muldf3.c
00000000 l    df *ABS*	00000000 subdf3.c
00000000 l    df *ABS*	00000000 fixdfsi.c
00000000 l    df *ABS*	00000000 floatsidf.c
00000000 l    df *ABS*	00000000 floatunsidf.c
00000000 l    df *ABS*	00000000 libgcc2.c
00000000 l    df *ABS*	00000000 libgcc2.c
00000000 l    df *ABS*	00000000 alt_close.c
02010b00 l     F .text	00000050 alt_get_errno
00000000 l    df *ABS*	00000000 alt_dev.c
02010c28 l     F .text	0000002c alt_dev_null_write
00000000 l    df *ABS*	00000000 alt_errno.c
00000000 l    df *ABS*	00000000 alt_fstat.c
02010c54 l     F .text	00000050 alt_get_errno
00000000 l    df *ABS*	00000000 alt_gettod.c
00000000 l    df *ABS*	00000000 alt_isatty.c
02010f68 l     F .text	00000050 alt_get_errno
00000000 l    df *ABS*	00000000 alt_lseek.c
02011064 l     F .text	00000050 alt_get_errno
00000000 l    df *ABS*	00000000 alt_main.c
00000000 l    df *ABS*	00000000 alt_malloc_lock.c
00000000 l    df *ABS*	00000000 alt_read.c
02011248 l     F .text	00000050 alt_get_errno
00000000 l    df *ABS*	00000000 alt_release_fd.c
00000000 l    df *ABS*	00000000 alt_sbrk.c
0201a9c8 l     O .rwdata	00000004 heap_end
00000000 l    df *ABS*	00000000 alt_tick.c
00000000 l    df *ABS*	00000000 alt_usleep.c
00000000 l    df *ABS*	00000000 alt_write.c
02011698 l     F .text	00000050 alt_get_errno
00000000 l    df *ABS*	00000000 alt_sys_init.c
020117e8 l     F .text	00000038 alt_dev_reg
02019840 l     O .rwdata	000000cc epcs
0201990c l     O .rwdata	00001060 jtag
0201a96c l     O .rwdata	0000002c parallel_port_0
00000000 l    df *ABS*	00000000 altera_avalon_epcs_flash_controller.c
020118cc l     F .text	00000038 alt_flash_device_register
02011958 l     F .text	000003f8 alt_epcs_flash_query
02011d50 l     F .text	000000e8 alt_epcs_flash_memcmp
02012124 l     F .text	00000094 alt_epcs_test_address
00000000 l    df *ABS*	00000000 altera_avalon_jtag_uart_fd.c
00000000 l    df *ABS*	00000000 altera_avalon_jtag_uart_init.c
020125ec l     F .text	00000204 altera_avalon_jtag_uart_irq
020127f0 l     F .text	000000a8 altera_avalon_jtag_uart_timeout
00000000 l    df *ABS*	00000000 altera_avalon_jtag_uart_ioctl.c
00000000 l    df *ABS*	00000000 altera_avalon_jtag_uart_read.c
00000000 l    df *ABS*	00000000 altera_avalon_jtag_uart_write.c
00000000 l    df *ABS*	00000000 altera_avalon_timer_sc.c
02012e10 l     F .text	00000074 alt_avalon_timer_sc_irq
00000000 l    df *ABS*	00000000 epcs_commands.c
02012f68 l     F .text	00000038 epcs_test_wip
02012fa0 l     F .text	00000038 epcs_await_wip_released
00000000 l    df *ABS*	00000000 alt_alarm_start.c
00000000 l    df *ABS*	00000000 alt_busy_sleep.c
00000000 l    df *ABS*	00000000 alt_dev_llist_insert.c
020137d0 l     F .text	00000050 alt_get_errno
00000000 l    df *ABS*	00000000 alt_do_ctors.c
00000000 l    df *ABS*	00000000 alt_do_dtors.c
00000000 l    df *ABS*	00000000 alt_flash_dev.c
00000000 l    df *ABS*	00000000 alt_iic.c
00000000 l    df *ABS*	00000000 alt_iic_isr_register.c
00000000 l    df *ABS*	00000000 alt_io_redirect.c
02013d04 l     F .text	000000e0 alt_open_fd
00000000 l    df *ABS*	00000000 alt_irq_vars.c
00000000 l    df *ABS*	00000000 alt_open.c
02013e5c l     F .text	00000050 alt_get_errno
02013eac l     F .text	000000f4 alt_file_locked
00000000 l    df *ABS*	00000000 altera_nios2_gen2_irq.c
00000000 l    df *ABS*	00000000 altera_avalon_spi.c
00000000 l    df *ABS*	00000000 alt_find_dev.c
00000000 l    df *ABS*	00000000 alt_find_file.c
00000000 l    df *ABS*	00000000 alt_get_fd.c
00000000 l    df *ABS*	00000000 atexit.c
00000000 l    df *ABS*	00000000 exit.c
00000000 l    df *ABS*	00000000 memcmp.c
00000000 l    df *ABS*	00000000 __atexit.c
00000000 l    df *ABS*	00000000 __call_atexit.c
00000000 l    df *ABS*	00000000 alt_exit.c
0201aa34 g     O .bss	00000004 alt_instruction_exception_handler
0200ae24 g     F .text	00000074 _mprec_log10
02012098 g     F .text	0000008c alt_epcs_flash_get_info
0200af10 g     F .text	0000008c __any_on
0200d154 g     F .text	00000054 _isatty_r
02018b74 g     O .rodata	00000028 __mprec_tinytens
02011190 g     F .text	00000078 alt_main
02004268 g     F .text	000000a8 _puts_r
0201aa60 g     O .bss	00000100 alt_irq
0200d1a8 g     F .text	0000005c _lseek_r
0200f520 g     F .text	00000084 .hidden __eqdf2
02009264 g     F .text	00000058 _gettimeofday_r
0201ab60 g       *ABS*	00000000 __alt_heap_start
020040c0 g     F .text	0000003c printf
0200d260 g     F .text	0000009c _wcrtomb_r
0200b6a4 g     F .text	0000005c __sseek
020087ac g     F .text	00000010 __sinit
020065c0 g     F .text	00000138 __swbuf_r
020092bc g     F .text	0000007c _setlocale_r
02008604 g     F .text	00000078 __sfmoreglue
02011228 g     F .text	00000020 __malloc_unlock
0201a9e0 g     O .bss	00000004 j
02009de4 g     F .text	0000015c memmove
02008794 g     F .text	00000018 _cleanup
02003b60 g     F .text	00000044 Outputlow_clk
02009f40 g     F .text	000000a8 _Balloc
0200f5a4 g     F .text	000000e0 .hidden __gtdf2
02014100 g     F .text	00000020 altera_nios2_gen2_irq_init
00000000  w      *UND*	00000000 __errno
02012fd8 g     F .text	000000f8 epcs_sector_erase
04001000 g     F .entry	00000000 __reset
02003c28 g     F .text	00000040 OutputHigh_cs
0200d0fc g     F .text	00000058 _fstat_r
0201a9f0 g     O .bss	00000004 errno
0200b620 g     F .text	00000008 __seofread
0201aa20 g     O .bss	00000004 alt_argv
02022998 g       *ABS*	00000000 _gp
02011668 g     F .text	00000030 usleep
02003b1c g     F .text	00000044 Outputlow_Din
020196c0 g     O .rwdata	00000180 alt_fd_list
02013214 g     F .text	00000068 epcs_write_status_register
02014324 g     F .text	00000090 alt_find_dev
02003e38 g     F .text	00000138 memcpy
0200845c g     F .text	0000000c _cleanup_r
02010928 g     F .text	000000d0 .hidden __floatsidf
02003c68 g     F .text	00000050 max7219_int
02003adc g     F .text	00000040 OutputHigh_Din
02013de4 g     F .text	00000078 alt_io_redirect
0200f684 g     F .text	000000e0 .hidden __ltdf2
020149dc g       *ABS*	00000000 __DTOR_END__
02004310 g     F .text	00000014 puts
0201459c g     F .text	0000009c alt_exception_cause_generated_bad_addr
0201222c g     F .text	00000100 alt_epcs_flash_write_block
0200b504 g     F .text	00000074 __fpclassifyd
0200ad80 g     F .text	000000a4 __ratio
0200cbb0 g     F .text	00000024 __vfiprintf_internal
020129ec g     F .text	0000020c altera_avalon_jtag_uart_read
00000000  w      *UND*	00000000 malloc
02004094 g     F .text	0000002c _printf_r
0200e2cc g     F .text	00000008 .hidden __udivsi3
02010fb8 g     F .text	000000ac isatty
02003be4 g     F .text	00000044 Outputlow_cs
02018bc4 g     O .rodata	000000c8 __mprec_tens
02009338 g     F .text	0000000c __locale_charset
0201aa0c g     O .bss	00000008 alt_timezone
0201aa08 g     O .bss	00000004 __malloc_top_pad
0201a9a0 g     O .rwdata	00000004 __mb_cur_max
02009368 g     F .text	0000000c _localeconv_r
0200a374 g     F .text	0000003c __i2b
02008c10 g     F .text	000004cc __sfvwrite_r
0200b578 g     F .text	00000054 _sbrk_r
0200d204 g     F .text	0000005c _read_r
0201a9c0 g     O .rwdata	00000004 alt_max_fd
0200ce18 g     F .text	000000f0 _fclose_r
0200841c g     F .text	00000030 fflush
0201aa04 g     O .bss	00000004 __malloc_max_sbrked_mem
0200e304 g     F .text	0000089c .hidden __adddf3
020121b8 g     F .text	00000074 alt_epcs_flash_erase_block
0200ab28 g     F .text	0000011c __b2d
0200db94 g     F .text	0000061c .hidden __umoddi3
020110b4 g     F .text	000000dc lseek
0201a998 g     O .rwdata	00000004 _global_impure_ptr
020134dc g     F .text	0000005c epcs_exit_4_bytes_mode
0200af9c g     F .text	00000568 _realloc_r
0201ab60 g       *ABS*	00000000 __bss_end
02013c14 g     F .text	000000f0 alt_iic_isr_register
02011564 g     F .text	00000104 alt_tick
0200d554 g     F .text	00000640 .hidden __udivdi3
0200cf1c g     F .text	00000184 _fputwc_r
02018b9c g     O .rodata	00000028 __mprec_bigtens
0200a158 g     F .text	00000104 __s2b
020109f8 g     F .text	000000a4 .hidden __floatunsidf
0200a8d0 g     F .text	00000060 __mcmp
020087cc g     F .text	00000018 __fp_lock_all
02013bc8 g     F .text	0000004c alt_ic_irq_enabled
020114cc g     F .text	00000098 alt_alarm_stop
0201aa30 g     O .bss	00000004 alt_irq_active
020000fc g     F .exceptions	000000d0 alt_irq_handler
02019698 g     O .rwdata	00000028 alt_dev_null
0200a25c g     F .text	00000068 __hi0bits
020108a0 g     F .text	00000088 .hidden __fixdfsi
0201a9b8 g     O .rwdata	00000008 alt_dev_list
020116e8 g     F .text	00000100 write
020040fc g     F .text	000000a0 _putc_r
02010ca4 g     F .text	000000b8 fstat
0200f684 g     F .text	000000e0 .hidden __ledf2
0200a640 g     F .text	00000140 __pow5mult
0200b8c0 g     F .text	000012f0 ___vfiprintf_internal_r
0201a9fc g     O .bss	00000004 __nlocale_changed
0200e2d4 g     F .text	00000008 .hidden __umodsi3
02013398 g     F .text	00000068 epcs_read_electronic_signature
0201ab60 g       *ABS*	00000000 end
02012528 g     F .text	000000c4 altera_avalon_jtag_uart_init
0201a9e4 g     O .bss	00000004 i
020001cc g     F .exceptions	00000060 alt_instruction_exception_entry
020149dc g       *ABS*	00000000 __CTOR_LIST__
04000000 g       *ABS*	00000000 __alt_stack_pointer
02012e84 g     F .text	00000088 alt_avalon_timer_sc_init
02010a9c g     F .text	00000064 .hidden __clzsi2
02012bf8 g     F .text	00000218 altera_avalon_jtag_uart_write
020087bc g     F .text	00000004 __sfp_lock_acquire
02009cfc g     F .text	000000e8 memchr
02004488 g     F .text	00002058 ___vfprintf_internal_r
02008920 g     F .text	000002f0 _free_r
02009344 g     F .text	00000010 __locale_mb_cur_max
02014814 g     F .text	00000194 __call_exitprocs
0201a9f8 g     O .bss	00000004 __mlocale_changed
0201a9a4 g     O .rwdata	00000004 __malloc_sbrk_base
0200022c g     F .text	00000038 _start
0201aa28 g     O .bss	00000004 _alt_tick_rate
0200433c g     F .text	00000064 rand
0200a780 g     F .text	00000150 __lshift
02014120 g     F .text	00000204 alt_avalon_spi_command
0201aa2c g     O .bss	00000004 _alt_nticks
02011298 g     F .text	00000104 read
02011854 g     F .text	00000078 alt_sys_init
02014700 g     F .text	00000114 __register_exitproc
0200a3b0 g     F .text	00000290 __multiply
02012898 g     F .text	00000068 altera_avalon_jtag_uart_close
0200e2dc g     F .text	00000028 .hidden __mulsi3
0201aa38 g     O .bss	00000028 __malloc_current_mallinfo
0200ac44 g     F .text	0000013c __d2b
02012f0c g     F .text	0000005c epcs_read_status_register
020123c4 g     F .text	00000060 altera_avalon_jtag_uart_read_fd
020144c8 g     F .text	000000d4 alt_get_fd
02013678 g     F .text	00000158 alt_busy_sleep
0200ccec g     F .text	00000054 _close_r
02003d34 g     F .text	00000104 sen_2_byte_info
02013400 g     F .text	00000080 epcs_read_device_id
02014684 g     F .text	0000007c memcmp
02012484 g     F .text	00000050 altera_avalon_jtag_uart_close_fd
0201ab60 g       *ABS*	00000000 __alt_stack_base
020124d4 g     F .text	00000054 altera_avalon_jtag_uart_ioctl_fd
02006714 g     F .text	00000154 __swsetup_r
0200eba0 g     F .text	00000980 .hidden __divdf3
0200867c g     F .text	00000118 __sfp
0200ae98 g     F .text	00000078 __copybits
02019290 g     O .rwdata	00000408 __malloc_av_
020087c8 g     F .text	00000004 __sinit_lock_release
0200f764 g     F .text	0000086c .hidden __muldf3
0200b5cc g     F .text	00000054 __sread
020143b4 g     F .text	00000114 alt_find_file
02013820 g     F .text	000000a4 alt_dev_llist_insert
02011208 g     F .text	00000020 __malloc_lock
0201141c g     F .text	000000b0 sbrk
020083c0 g     F .text	0000005c _fflush_r
0200cd40 g     F .text	000000d8 _calloc_r
0201a9d4 g     O .rwdata	00000008 alt_flash_dev_list
02010d5c g     F .text	0000020c gettimeofday
0201a9e0 g       *ABS*	00000000 __bss_start
02003f70 g     F .text	00000124 memset
02000264 g     F .text	00003878 main
0201aa24 g     O .bss	00000004 alt_envp
0201aa00 g     O .bss	00000004 __malloc_max_total_mem
02012424 g     F .text	00000060 altera_avalon_jtag_uart_write_fd
020066f8 g     F .text	0000001c __swbuf
02004324 g     F .text	00000018 srand
02003ba4 g     F .text	00000040 OutputHigh_clk
0200b700 g     F .text	00000008 __sclose
04000000 g       *ABS*	00000000 __alt_heap_limit
0200cf08 g     F .text	00000014 fclose
02006a90 g     F .text	00001728 _dtoa_r
02009554 g     F .text	000007a8 _malloc_r
0200d3bc g     F .text	00000030 __ascii_wctomb
02004438 g     F .text	00000050 time
0201a9c4 g     O .rwdata	00000004 alt_errno
020090dc g     F .text	000000c4 _fwalk
0200419c g     F .text	000000cc putc
0200e21c g     F .text	00000054 .hidden __divsi3
020087fc g     F .text	00000124 _malloc_trim_r
020149dc g       *ABS*	00000000 __CTOR_END__
02011e38 g     F .text	00000260 alt_epcs_flash_write
0200b708 g     F .text	000000a4 strcmp
020149dc g       *ABS*	00000000 __DTOR_LIST__
0200f520 g     F .text	00000084 .hidden __nedf2
02011820 g     F .text	00000034 alt_irq_init
0201139c g     F .text	00000080 alt_release_fd
02018cac g     O .rodata	00000100 .hidden __clz_tab
0201a9f4 g     O .bss	00000004 _PathLocale
02014638 g     F .text	00000014 atexit
0200cc90 g     F .text	0000005c _write_r
02009374 g     F .text	0000001c setlocale
0201a99c g     O .rwdata	00000004 _impure_ptr
0201aa1c g     O .bss	00000004 alt_argc
020081b8 g     F .text	00000208 __sflush_r
02013920 g     F .text	0000005c _do_dtors
02009360 g     F .text	00000008 __locale_cjk_lang
02000020 g       .exceptions	00000000 alt_irq_entry
0200aac8 g     F .text	00000060 __ulp
020087e4 g     F .text	00000018 __fp_unlock_all
0201a9b0 g     O .rwdata	00000008 alt_fs_list
0201aa14 g     O .bss	00000008 alt_resettime
02009390 g     F .text	0000000c localeconv
020130d0 g     F .text	000000f4 epcs_read_buffer
02011904 g     F .text	00000054 alt_epcs_flash_init
02013a34 g     F .text	00000050 alt_ic_isr_register
0201a9e0 g       *ABS*	00000000 _edata
0201ab60 g       *ABS*	00000000 _end
0201397c g     F .text	00000068 alt_flash_open_dev
02012900 g     F .text	000000ec altera_avalon_jtag_uart_ioctl
02013b24 g     F .text	000000a4 alt_ic_irq_disable
02013480 g     F .text	0000005c epcs_enter_4_bytes_mode
0200b628 g     F .text	0000007c __swrite
0201a9a8 g     O .rwdata	00000004 __malloc_trim_threshold
02009354 g     F .text	0000000c __locale_msgcharset
0201464c g     F .text	00000038 exit
020091a0 g     F .text	000000c4 _fwalk_reent
0200a930 g     F .text	00000198 __mdiff
020139e4 g     F .text	00000050 alt_flash_close_dev
0200e270 g     F .text	0000005c .hidden __modsi3
04000000 g       *ABS*	00000000 __alt_data_end
02000020 g     F .exceptions	00000000 alt_exception
020087c0 g     F .text	00000004 __sfp_lock_release
02000000 g       *ABS*	00000000 __alt_mem_sdram
02003cb8 g     F .text	0000007c max7219_senbit
020149a8 g     F .text	00000034 _exit
02013538 g     F .text	00000140 alt_alarm_start
0200d448 g     F .text	0000010c .hidden __muldi3
0200939c g     F .text	000001b8 __smakebuf_r
020043a0 g     F .text	00000098 strlen
020131c4 g     F .text	00000050 epcs_write_enable
02013fa0 g     F .text	00000160 open
0200f5a4 g     F .text	000000e0 .hidden __gedf2
0201a9ac g     O .rwdata	00000004 __wctomb
0200b8a8 g     F .text	00000018 __sprint_r
0201a9dc g     O .rwdata	00000004 alt_priority_mask
02013a84 g     F .text	000000a0 alt_ic_irq_enable
020064e0 g     F .text	00000024 __vfprintf_internal
04001000 g       *ABS*	00000000 __alt_mem_epcs
0200d3ec g     F .text	0000005c _wctomb_r
0200ffd0 g     F .text	000008d0 .hidden __subdf3
0201232c g     F .text	00000098 alt_epcs_flash_read
0200a2c4 g     F .text	000000b0 __lo0bits
0201a9cc g     O .rwdata	00000008 alt_alarm_list
020138c4 g     F .text	0000005c _do_ctors
0200d2fc g     F .text	000000c0 wcrtomb
02010b50 g     F .text	000000d8 close
0201a9e8 g     O .bss	00000007 matriz
0200d0a0 g     F .text	0000005c fputwc
00000000  w      *UND*	00000000 free
020087c4 g     F .text	00000004 __sinit_lock_acquire
0201327c g     F .text	0000011c epcs_write_buffer
0200a010 g     F .text	00000148 __multadd
02009fe8 g     F .text	00000028 _Bfree



Disassembly of section .exceptions:

02000020 <alt_exception>:

#else /* ALT_EXCEPTION_STACK disabled */
        /* 
         * Reserve space on normal stack for registers about to be pushed.
         */
        addi  sp, sp, -76
 2000020:	deffed04 	addi	sp,sp,-76
         * documentation for details).
         *
         * Leave a gap in the stack frame at 4(sp) for the muldiv handler to
         * store zero into.
         */
        stw   ra,  0(sp)
 2000024:	dfc00015 	stw	ra,0(sp)
        stw   r1,   8(sp)
 2000028:	d8400215 	stw	at,8(sp)
        stw   r2,  12(sp)
 200002c:	d8800315 	stw	r2,12(sp)
        stw   r3,  16(sp)
 2000030:	d8c00415 	stw	r3,16(sp)
        stw   r4,  20(sp)
 2000034:	d9000515 	stw	r4,20(sp)
        stw   r5,  24(sp)
 2000038:	d9400615 	stw	r5,24(sp)
        stw   r6,  28(sp)
 200003c:	d9800715 	stw	r6,28(sp)
        stw   r7,  32(sp)
 2000040:	d9c00815 	stw	r7,32(sp)
        rdctl r5, estatus   /* Read early to avoid usage stall */
 2000044:	000b307a 	rdctl	r5,estatus
        stw   r8,  36(sp)
 2000048:	da000915 	stw	r8,36(sp)
        stw   r9,  40(sp)
 200004c:	da400a15 	stw	r9,40(sp)
        stw   r10, 44(sp)
 2000050:	da800b15 	stw	r10,44(sp)
        stw   r11, 48(sp)
 2000054:	dac00c15 	stw	r11,48(sp)
        stw   r12, 52(sp)
 2000058:	db000d15 	stw	r12,52(sp)
        stw   r13, 56(sp)
 200005c:	db400e15 	stw	r13,56(sp)
        stw   r14, 60(sp)
 2000060:	db800f15 	stw	r14,60(sp)
        stw   r15, 64(sp)
 2000064:	dbc01015 	stw	r15,64(sp)
        /*
         * ea-4 contains the address of the instruction being executed
         * when the exception occured. For interrupt exceptions, we will
         * will be re-issue the isntruction. Store it in 72(sp)
         */
        stw   r5,  68(sp)  /* estatus */
 2000068:	d9401115 	stw	r5,68(sp)
        addi  r15, ea, -4  /* instruction that caused exception */
 200006c:	ebffff04 	addi	r15,ea,-4
        stw   r15,  72(sp)
 2000070:	dbc01215 	stw	r15,72(sp)
#else
        /*
         * Test to see if the exception was a software exception or caused 
         * by an external interrupt, and vector accordingly.
         */
        rdctl r4, ipending
 2000074:	0009313a 	rdctl	r4,ipending
        andi  r2, r5, 1
 2000078:	2880004c 	andi	r2,r5,1
        beq   r2, zero, .Lnot_irq
 200007c:	10000326 	beq	r2,zero,200008c <alt_exception+0x6c>
        beq   r4, zero, .Lnot_irq
 2000080:	20000226 	beq	r4,zero,200008c <alt_exception+0x6c>
        /*
         * Now that all necessary registers have been preserved, call 
         * alt_irq_handler() to process the interrupts.
         */

        call alt_irq_handler
 2000084:	20000fc0 	call	20000fc <alt_irq_handler>

        .section .exceptions.irqreturn, "xa"

        br    .Lexception_exit
 2000088:	00000706 	br	20000a8 <alt_exception+0x88>
         * upon completion, so we write ea (address of instruction *after*
         * the one where the exception occured) into 72(sp). The actual
         * instruction that caused the exception is written in r2, which these
         * handlers will utilize.
         */
        stw   ea,  72(sp)  /* Don't re-issue */
 200008c:	df401215 	stw	ea,72(sp)
        ldhu.n  r2, 0(r4)
        ldhu.n  r3, 2(r4)
        slli.n  r3, r3, 16
        or.n    r2, r2, r3 /* Instruction that caused exception */
#else
        ldw   r2, -4(ea)   /* Instruction that caused exception */
 2000090:	e8bfff17 	ldw	r2,-4(ea)
         * debugger is present) or go into an infinite loop since the
         * handling behavior is undefined; in that case we will not return here.
         */

        /* Load exception-causing address as first argument (r4) */
        addi   r4, ea, -4
 2000094:	e93fff04 	addi	r4,ea,-4

        /* Call the instruction-exception entry */
        call   alt_instruction_exception_entry
 2000098:	20001cc0 	call	20001cc <alt_instruction_exception_entry>
         * instruction
         *
         * Return code was 0: Skip. The instruction after the exception is
         * already stored in 72(sp).
         */
        bne   r2, r0, .Lexception_exit
 200009c:	1000021e 	bne	r2,zero,20000a8 <alt_exception+0x88>

        /*
         * Otherwise, modify 72(sp) to re-issue the instruction that caused the
         * exception.
         */
        addi  r15, ea, -4  /* instruction that caused exception */
 20000a0:	ebffff04 	addi	r15,ea,-4
        stw   r15,  72(sp)
 20000a4:	dbc01215 	stw	r15,72(sp)
        /* 
         * Restore the saved registers, so that all general purpose registers 
         * have been restored to their state at the time the interrupt occured.
         */

        ldw   r5,  68(sp)
 20000a8:	d9401117 	ldw	r5,68(sp)
        ldw   ea,  72(sp)  /* This becomes the PC once eret is executed */
 20000ac:	df401217 	ldw	ea,72(sp)
        ldw   ra,   0(sp)
 20000b0:	dfc00017 	ldw	ra,0(sp)

        wrctl estatus, r5
 20000b4:	2801707a 	wrctl	estatus,r5

        ldw   r1,   8(sp)
 20000b8:	d8400217 	ldw	at,8(sp)
        ldw   r2,  12(sp)
 20000bc:	d8800317 	ldw	r2,12(sp)
        ldw   r3,  16(sp)
 20000c0:	d8c00417 	ldw	r3,16(sp)
        ldw   r4,  20(sp)
 20000c4:	d9000517 	ldw	r4,20(sp)
        ldw   r5,  24(sp)
 20000c8:	d9400617 	ldw	r5,24(sp)
        ldw   r6,  28(sp)
 20000cc:	d9800717 	ldw	r6,28(sp)
        ldw   r7,  32(sp)
 20000d0:	d9c00817 	ldw	r7,32(sp)

#if defined(ALT_EXCEPTION_STACK) && defined(ALT_STACK_CHECK)
        ldw   et, %gprel(alt_exception_old_stack_limit)(gp)
#endif

        ldw   r8,  36(sp)
 20000d4:	da000917 	ldw	r8,36(sp)
        ldw   r9,  40(sp)
 20000d8:	da400a17 	ldw	r9,40(sp)
        ldw   r10, 44(sp)
 20000dc:	da800b17 	ldw	r10,44(sp)
        ldw   r11, 48(sp)
 20000e0:	dac00c17 	ldw	r11,48(sp)
        ldw   r12, 52(sp)
 20000e4:	db000d17 	ldw	r12,52(sp)
        ldw   r13, 56(sp)
 20000e8:	db400e17 	ldw	r13,56(sp)
        ldw   r14, 60(sp)
 20000ec:	db800f17 	ldw	r14,60(sp)
        ldw   r15, 64(sp)
 20000f0:	dbc01017 	ldw	r15,64(sp)
        stw   et, %gprel(alt_stack_limit_value)(gp)
        stw   zero, %gprel(alt_exception_old_stack_limit)(gp)
#endif /* ALT_STACK_CHECK */
        ldw   sp,  76(sp)
#else /* ALT_EXCEPTION_STACK disabled */
        addi  sp, sp, 76
 20000f4:	dec01304 	addi	sp,sp,76

        /*
         * Return to the interrupted instruction.
         */

        eret
 20000f8:	ef80083a 	eret

020000fc <alt_irq_handler>:
 * instruction is present if the macro ALT_CI_INTERRUPT_VECTOR defined.
 */

void alt_irq_handler (void) __attribute__ ((section (".exceptions")));
void alt_irq_handler (void)
{
 20000fc:	defff904 	addi	sp,sp,-28
 2000100:	dfc00615 	stw	ra,24(sp)
 2000104:	df000515 	stw	fp,20(sp)
 2000108:	df000504 	addi	fp,sp,20
  
  /*
   * Notify the operating system that we are at interrupt level.
   */ 
  
  ALT_OS_INT_ENTER();
 200010c:	0001883a 	nop
#ifndef NIOS2_EIC_PRESENT
static ALT_INLINE alt_u32 ALT_ALWAYS_INLINE alt_irq_pending (void)
{
  alt_u32 active;

  NIOS2_READ_IPENDING (active);
 2000110:	0005313a 	rdctl	r2,ipending
 2000114:	e0bffe15 	stw	r2,-8(fp)

  return active;
 2000118:	e0bffe17 	ldw	r2,-8(fp)
   * Consider the case where the high priority interupt is asserted during
   * the interrupt entry sequence for a lower priority interrupt to see why
   * this is the case.
   */

  active = alt_irq_pending ();
 200011c:	e0bffb15 	stw	r2,-20(fp)

  do
  {
    i = 0;
 2000120:	e03ffd15 	stw	zero,-12(fp)
    mask = 1;
 2000124:	00800044 	movi	r2,1
 2000128:	e0bffc15 	stw	r2,-16(fp)
     * called to clear the interrupt condition.
     */

    do
    {
      if (active & mask)
 200012c:	e0fffb17 	ldw	r3,-20(fp)
 2000130:	e0bffc17 	ldw	r2,-16(fp)
 2000134:	1884703a 	and	r2,r3,r2
 2000138:	10001426 	beq	r2,zero,200018c <alt_irq_handler+0x90>
      { 
#ifdef ALT_ENHANCED_INTERRUPT_API_PRESENT
        alt_irq[i].handler(alt_irq[i].context); 
 200013c:	008080b4 	movhi	r2,514
 2000140:	10aa9804 	addi	r2,r2,-21920
 2000144:	e0fffd17 	ldw	r3,-12(fp)
 2000148:	180690fa 	slli	r3,r3,3
 200014c:	10c5883a 	add	r2,r2,r3
 2000150:	10c00017 	ldw	r3,0(r2)
 2000154:	008080b4 	movhi	r2,514
 2000158:	10aa9804 	addi	r2,r2,-21920
 200015c:	e13ffd17 	ldw	r4,-12(fp)
 2000160:	200890fa 	slli	r4,r4,3
 2000164:	21000104 	addi	r4,r4,4
 2000168:	1105883a 	add	r2,r2,r4
 200016c:	10800017 	ldw	r2,0(r2)
 2000170:	1009883a 	mov	r4,r2
 2000174:	183ee83a 	callr	r3
#else
        alt_irq[i].handler(alt_irq[i].context, i); 
#endif
        break;
 2000178:	0001883a 	nop
#ifndef NIOS2_EIC_PRESENT
static ALT_INLINE alt_u32 ALT_ALWAYS_INLINE alt_irq_pending (void)
{
  alt_u32 active;

  NIOS2_READ_IPENDING (active);
 200017c:	0005313a 	rdctl	r2,ipending
 2000180:	e0bfff15 	stw	r2,-4(fp)

  return active;
 2000184:	e0bfff17 	ldw	r2,-4(fp)
 2000188:	00000706 	br	20001a8 <alt_irq_handler+0xac>
      }
      mask <<= 1;
 200018c:	e0bffc17 	ldw	r2,-16(fp)
 2000190:	1085883a 	add	r2,r2,r2
 2000194:	e0bffc15 	stw	r2,-16(fp)
      i++;
 2000198:	e0bffd17 	ldw	r2,-12(fp)
 200019c:	10800044 	addi	r2,r2,1
 20001a0:	e0bffd15 	stw	r2,-12(fp)

    } while (1);
 20001a4:	003fe106 	br	200012c <alt_irq_handler+0x30>

    active = alt_irq_pending ();
 20001a8:	e0bffb15 	stw	r2,-20(fp)
    
  } while (active);
 20001ac:	e0bffb17 	ldw	r2,-20(fp)
 20001b0:	103fdb1e 	bne	r2,zero,2000120 <alt_irq_handler+0x24>

  /*
   * Notify the operating system that interrupt processing is complete.
   */ 

  ALT_OS_INT_EXIT();
 20001b4:	0001883a 	nop
}
 20001b8:	e037883a 	mov	sp,fp
 20001bc:	dfc00117 	ldw	ra,4(sp)
 20001c0:	df000017 	ldw	fp,0(sp)
 20001c4:	dec00204 	addi	sp,sp,8
 20001c8:	f800283a 	ret

020001cc <alt_instruction_exception_entry>:
 * that handler if it has been registered. Absent a handler, it will
 * break break or hang as discussed below.
 */
int 
alt_instruction_exception_entry (alt_u32 exception_pc)
{
 20001cc:	defffb04 	addi	sp,sp,-20
 20001d0:	dfc00415 	stw	ra,16(sp)
 20001d4:	df000315 	stw	fp,12(sp)
 20001d8:	df000304 	addi	fp,sp,12
 20001dc:	e13fff15 	stw	r4,-4(fp)
  cause = ( (cause & NIOS2_EXCEPTION_REG_CAUSE_MASK) >>
              NIOS2_EXCEPTION_REG_CAUSE_OFST );

  NIOS2_READ_BADADDR(badaddr);
#else
  cause = NIOS2_EXCEPTION_CAUSE_NOT_PRESENT;
 20001e0:	00bfffc4 	movi	r2,-1
 20001e4:	e0bffd15 	stw	r2,-12(fp)
  badaddr = 0;
 20001e8:	e03ffe15 	stw	zero,-8(fp)
#endif /* NIOS2_HAS_EXTRA_EXCEPTION_INFO */

  if(alt_instruction_exception_handler) {
 20001ec:	d0a02717 	ldw	r2,-32612(gp)
 20001f0:	10000726 	beq	r2,zero,2000210 <alt_instruction_exception_entry+0x44>
     * Call handler. Its return value indicates whether the exception-causing
     * instruction should be re-issued. The code that called us,
     * alt_eceptions_entry.S, will look at this value and adjust the ea
     * register as necessary
     */
    return alt_instruction_exception_handler(cause, exception_pc, badaddr);
 20001f4:	d0a02717 	ldw	r2,-32612(gp)
 20001f8:	e0fffd17 	ldw	r3,-12(fp)
 20001fc:	1809883a 	mov	r4,r3
 2000200:	e17fff17 	ldw	r5,-4(fp)
 2000204:	e1bffe17 	ldw	r6,-8(fp)
 2000208:	103ee83a 	callr	r2
 200020c:	00000206 	br	2000218 <alt_instruction_exception_entry+0x4c>
   *    (a peripheral which negates its interrupt output before its
   *    interrupt handler has been executed will cause spurious interrupts)
   */
  else {
#ifdef NIOS2_HAS_DEBUG_STUB
    NIOS2_BREAK();
 2000210:	003da03a 	break	0
      ;
#endif /* NIOS2_HAS_DEBUG_STUB */
  }

  /* We should not get here. Remove compiler warning. */
  return NIOS2_EXCEPTION_RETURN_REISSUE_INST;
 2000214:	0005883a 	mov	r2,zero
}
 2000218:	e037883a 	mov	sp,fp
 200021c:	dfc00117 	ldw	ra,4(sp)
 2000220:	df000017 	ldw	fp,0(sp)
 2000224:	dec00204 	addi	sp,sp,8
 2000228:	f800283a 	ret

Disassembly of section .text:

0200022c <_start>:

    /*
     * Now that the caches are initialized, set up the stack pointer and global pointer.
     * The values provided by the linker are assumed to be correctly aligned.
     */
    movhi sp, %hi(__alt_stack_pointer)
 200022c:	06c10034 	movhi	sp,1024
    ori sp, sp, %lo(__alt_stack_pointer)
 2000230:	dec00014 	ori	sp,sp,0
    movhi gp, %hi(_gp)
 2000234:	068080b4 	movhi	gp,514
    ori gp, gp, %lo(_gp)
 2000238:	d68a6614 	ori	gp,gp,10648
 */
#ifndef ALT_SIM_OPTIMIZE
    /* Log that the BSS is about to be cleared. */
    ALT_LOG_PUTS(alt_log_msg_bss)

    movhi r2, %hi(__bss_start)
 200023c:	00808074 	movhi	r2,513
    ori r2, r2, %lo(__bss_start)
 2000240:	10aa7814 	ori	r2,r2,43488

    movhi r3, %hi(__bss_end)
 2000244:	00c08074 	movhi	r3,513
    ori r3, r3, %lo(__bss_end)
 2000248:	18ead814 	ori	r3,r3,43872

    beq r2, r3, 1f
 200024c:	10c00326 	beq	r2,r3,200025c <_start+0x30>

0:
    stw zero, (r2)
 2000250:	10000015 	stw	zero,0(r2)
    addi r2, r2, 4
 2000254:	10800104 	addi	r2,r2,4
    bltu r2, r3, 0b
 2000258:	10fffd36 	bltu	r2,r3,2000250 <_start+0x24>

    /* Log that alt_main is about to be called. */
    ALT_LOG_PUTS(alt_log_msg_alt_main)

    /* Call the C entry point. It should never return. */
    call alt_main
 200025c:	20111900 	call	2011190 <alt_main>

02000260 <alt_after_alt_main>:

    /* Wait in infinite loop in case alt_main does return. */
alt_after_alt_main:
    br alt_after_alt_main
 2000260:	003fff06 	br	2000260 <alt_after_alt_main>

02000264 <main>:

char matriz [7];
int i;
int j;
int main()
{	printf("Hello from Nios II!\n");
 2000264:	defffd04 	addi	sp,sp,-12
 2000268:	dfc00215 	stw	ra,8(sp)
 200026c:	df000115 	stw	fp,4(sp)
 2000270:	dc000015 	stw	r16,0(sp)
 2000274:	df000104 	addi	fp,sp,4
 2000278:	023ffff4 	movhi	r8,65535
 200027c:	421f7104 	addi	r8,r8,32196
 2000280:	da37883a 	add	sp,sp,r8
 2000284:	01008074 	movhi	r4,513
 2000288:	21127704 	addi	r4,r4,18908
 200028c:	20043100 	call	2004310 <puts>
	// variable para la salida en los pines del GPIO
	unsigned int portlog=0;
 2000290:	00bffff4 	movhi	r2,65535
 2000294:	109f7b04 	addi	r2,r2,32236
 2000298:	1705883a 	add	r2,r2,fp
 200029c:	10000015 	stw	zero,0(r2)
	// selecionar pines de salida
	IOWR(PARALLEL_PORT_0_BASE, ALT_UP_PARALLEL_PORT_DIRECTION, 0x0000000f);
 20002a0:	00c003c4 	movi	r3,15
 20002a4:	00810034 	movhi	r2,1024
 20002a8:	10881904 	addi	r2,r2,8292
 20002ac:	10c00035 	stwio	r3,0(r2)
	// programa para generar figura
	while(1)
	{
		  // envio de información:
		// inicio comunicacion
		max7219_int(portlog);
 20002b0:	00fffff4 	movhi	r3,65535
 20002b4:	18df7b04 	addi	r3,r3,32236
 20002b8:	1f07883a 	add	r3,r3,fp
 20002bc:	18800017 	ldw	r2,0(r3)
 20002c0:	1009883a 	mov	r4,r2
 20002c4:	2003c680 	call	2003c68 <max7219_int>
		// configuracion
		sen_2_byte_info(portlog,ADDR_SHUTDOWN,NORMAL_OPERATION);
 20002c8:	013ffff4 	movhi	r4,65535
 20002cc:	211f7b04 	addi	r4,r4,32236
 20002d0:	2709883a 	add	r4,r4,fp
 20002d4:	20800017 	ldw	r2,0(r4)
 20002d8:	1009883a 	mov	r4,r2
 20002dc:	01400304 	movi	r5,12
 20002e0:	01800044 	movi	r6,1
 20002e4:	2003d340 	call	2003d34 <sen_2_byte_info>
		sen_2_byte_info(portlog,ADDR_SCAN_LIMIT,DIS_DIG_0_7);
 20002e8:	017ffff4 	movhi	r5,65535
 20002ec:	295f7b04 	addi	r5,r5,32236
 20002f0:	2f0b883a 	add	r5,r5,fp
 20002f4:	28800017 	ldw	r2,0(r5)
 20002f8:	1009883a 	mov	r4,r2
 20002fc:	014002c4 	movi	r5,11
 2000300:	018001c4 	movi	r6,7
 2000304:	2003d340 	call	2003d34 <sen_2_byte_info>
		sen_2_byte_info(portlog,ADDR_INTENSITY,INTENSITY_21_32);
 2000308:	01bffff4 	movhi	r6,65535
 200030c:	319f7b04 	addi	r6,r6,32236
 2000310:	370d883a 	add	r6,r6,fp
 2000314:	30800017 	ldw	r2,0(r6)
 2000318:	1009883a 	mov	r4,r2
 200031c:	01400284 	movi	r5,10
 2000320:	01800284 	movi	r6,10
 2000324:	2003d340 	call	2003d34 <sen_2_byte_info>
		sen_2_byte_info(portlog,ADDR_DECODE_MODE,NO_DECODE_7_0);
 2000328:	00fffff4 	movhi	r3,65535
 200032c:	18df7b04 	addi	r3,r3,32236
 2000330:	1f07883a 	add	r3,r3,fp
 2000334:	18800017 	ldw	r2,0(r3)
 2000338:	1009883a 	mov	r4,r2
 200033c:	01400244 	movi	r5,9
 2000340:	000d883a 	mov	r6,zero
 2000344:	2003d340 	call	2003d34 <sen_2_byte_info>
		sen_2_byte_info(portlog,ADDR_DISPLAY_TEST,NORMAL_OPETAION_MODE);
 2000348:	013ffff4 	movhi	r4,65535
 200034c:	211f7b04 	addi	r4,r4,32236
 2000350:	2709883a 	add	r4,r4,fp
 2000354:	20800017 	ldw	r2,0(r4)
 2000358:	1009883a 	mov	r4,r2
 200035c:	014003c4 	movi	r5,15
 2000360:	000d883a 	mov	r6,zero
 2000364:	2003d340 	call	2003d34 <sen_2_byte_info>
		unsigned int moves[64][64]={{1,1,0,0,0,0,0,0,1,0,0,0,0,0,0,0,0,0,0,0,0,0,0,0,0,0,0,0,0,0,0,0,0,0,0,0,0,0,0,0,0,0,0,0,0,0,0,0,0,0,0,0,0,0,0,0,0,0,0,0,0,0,0,0,},{1,1,1,0,0,0,0,0,0,1,0,0,0,0,0,0,0,0,0,0,0,0,0,0,0,0,0,0,0,0,0,0,0,0,0,0,0,0,0,0,0,0,0,0,0,0,0,0,0,0,0,0,0,0,0,0,0,0,0,0,0,0,0,0,},{0,1,1,1,0,0,0,0,0,0,1,0,0,0,0,0,0,0,0,0,0,0,0,0,0,0,0,0,0,0,0,0,0,0,0,0,0,0,0,0,0,0,0,0,0,0,0,0,0,0,0,0,0,0,0,0,0,0,0,0,0,0,0,0,},{0,0,1,1,1,0,0,0,0,0,0,1,0,0,0,0,0,0,0,0,0,0,0,0,0,0,0,0,0,0,0,0,0,0,0,0,0,0,0,0,0,0,0,0,0,0,0,0,0,0,0,0,0,0,0,0,0,0,0,0,0,0,0,0,},{0,0,0,1,1,1,0,0,0,0,0,0,1,0,0,0,0,0,0,0,0,0,0,0,0,0,0,0,0,0,0,0,0,0,0,0,0,0,0,0,0,0,0,0,0,0,0,0,0,0,0,0,0,0,0,0,0,0,0,0,0,0,0,0,},{0,0,0,0,1,1,1,0,0,0,0,0,0,1,0,0,0,0,0,0,0,0,0,0,0,0,0,0,0,0,0,0,0,0,0,0,0,0,0,0,0,0,0,0,0,0,0,0,0,0,0,0,0,0,0,0,0,0,0,0,0,0,0,0,},{0,0,0,0,0,1,1,1,0,0,0,0,0,0,1,0,0,0,0,0,0,0,0,0,0,0,0,0,0,0,0,0,0,0,0,0,0,0,0,0,0,0,0,0,0,0,0,0,0,0,0,0,0,0,0,0,0,0,0,0,0,0,0,0,},{0,0,0,0,0,0,1,1,0,0,0,0,0,0,0,1,0,0,0,0,0,0,0,0,0,0,0,0,0,0,0,0,0,0,0,0,0,0,0,0,0,0,0,0,0,0,0,0,0,0,0,0,0,0,0,0,0,0,0,0,0,0,0,0,},{1,0,0,0,0,0,0,0,1,1,0,0,0,0,0,0,1,0,0,0,0,0,0,0,0,0,0,0,0,0,0,0,0,0,0,0,0,0,0,0,0,0,0,0,0,0,0,0,0,0,0,0,0,0,0,0,0,0,0,0,0,0,0,0,},{0,1,0,0,0,0,0,0,1,1,1,0,0,0,0,0,0,1,0,0,0,0,0,0,0,0,0,0,0,0,0,0,0,0,0,0,0,0,0,0,0,0,0,0,0,0,0,0,0,0,0,0,0,0,0,0,0,0,0,0,0,0,0,0,},{0,0,1,0,0,0,0,0,0,1,1,1,0,0,0,0,0,0,1,0,0,0,0,0,0,0,0,0,0,0,0,0,0,0,0,0,0,0,0,0,0,0,0,0,0,0,0,0,0,0,0,0,0,0,0,0,0,0,0,0,0,0,0,0,},{0,0,0,1,0,0,0,0,0,0,1,1,1,0,0,0,0,0,0,1,0,0,0,0,0,0,0,0,0,0,0,0,0,0,0,0,0,0,0,0,0,0,0,0,0,0,0,0,0,0,0,0,0,0,0,0,0,0,0,0,0,0,0,0,},{0,0,0,0,1,0,0,0,0,0,0,1,1,1,0,0,0,0,0,0,1,0,0,0,0,0,0,0,0,0,0,0,0,0,0,0,0,0,0,0,0,0,0,0,0,0,0,0,0,0,0,0,0,0,0,0,0,0,0,0,0,0,0,0,},{0,0,0,0,0,1,0,0,0,0,0,0,1,1,1,0,0,0,0,0,0,1,0,0,0,0,0,0,0,0,0,0,0,0,0,0,0,0,0,0,0,0,0,0,0,0,0,0,0,0,0,0,0,0,0,0,0,0,0,0,0,0,0,0,},{0,0,0,0,0,0,1,0,0,0,0,0,0,1,1,1,0,0,0,0,0,0,1,0,0,0,0,0,0,0,0,0,0,0,0,0,0,0,0,0,0,0,0,0,0,0,0,0,0,0,0,0,0,0,0,0,0,0,0,0,0,0,0,0,},{0,0,0,0,0,0,0,1,0,0,0,0,0,0,1,1,0,0,0,0,0,0,0,1,0,0,0,0,0,0,0,0,0,0,0,0,0,0,0,0,0,0,0,0,0,0,0,0,0,0,0,0,0,0,0,0,0,0,0,0,0,0,0,0,},{0,0,0,0,0,0,0,0,1,0,0,0,0,0,0,0,1,1,0,0,0,0,0,0,1,0,0,0,0,0,0,0,0,0,0,0,0,0,0,0,0,0,0,0,0,0,0,0,0,0,0,0,0,0,0,0,0,0,0,0,0,0,0,0,},{0,0,0,0,0,0,0,0,0,1,0,0,0,0,0,0,1,1,1,0,0,0,0,0,0,1,0,0,0,0,0,0,0,0,0,0,0,0,0,0,0,0,0,0,0,0,0,0,0,0,0,0,0,0,0,0,0,0,0,0,0,0,0,0,},{0,0,0,0,0,0,0,0,0,0,1,0,0,0,0,0,0,1,1,1,0,0,0,0,0,0,1,0,0,0,0,0,0,0,0,0,0,0,0,0,0,0,0,0,0,0,0,0,0,0,0,0,0,0,0,0,0,0,0,0,0,0,0,0,},{0,0,0,0,0,0,0,0,0,0,0,1,0,0,0,0,0,0,1,1,1,0,0,0,0,0,0,1,0,0,0,0,0,0,0,0,0,0,0,0,0,0,0,0,0,0,0,0,0,0,0,0,0,0,0,0,0,0,0,0,0,0,0,0,},{0,0,0,0,0,0,0,0,0,0,0,0,1,0,0,0,0,0,0,1,1,1,0,0,0,0,0,0,1,0,0,0,0,0,0,0,0,0,0,0,0,0,0,0,0,0,0,0,0,0,0,0,0,0,0,0,0,0,0,0,0,0,0,0,},{0,0,0,0,0,0,0,0,0,0,0,0,0,1,0,0,0,0,0,0,1,1,1,0,0,0,0,0,0,1,0,0,0,0,0,0,0,0,0,0,0,0,0,0,0,0,0,0,0,0,0,0,0,0,0,0,0,0,0,0,0,0,0,0,},{0,0,0,0,0,0,0,0,0,0,0,0,0,0,1,0,0,0,0,0,0,1,1,1,0,0,0,0,0,0,1,0,0,0,0,0,0,0,0,0,0,0,0,0,0,0,0,0,0,0,0,0,0,0,0,0,0,0,0,0,0,0,0,0,},{0,0,0,0,0,0,0,0,0,0,0,0,0,0,0,1,0,0,0,0,0,0,1,1,0,0,0,0,0,0,0,1,0,0,0,0,0,0,0,0,0,0,0,0,0,0,0,0,0,0,0,0,0,0,0,0,0,0,0,0,0,0,0,0,},{0,0,0,0,0,0,0,0,0,0,0,0,0,0,0,0,1,0,0,0,0,0,0,0,1,1,0,0,0,0,0,0,1,0,0,0,0,0,0,0,0,0,0,0,0,0,0,0,0,0,0,0,0,0,0,0,0,0,0,0,0,0,0,0,},{0,0,0,0,0,0,0,0,0,0,0,0,0,0,0,0,0,1,0,0,0,0,0,0,1,1,1,0,0,0,0,0,0,1,0,0,0,0,0,0,0,0,0,0,0,0,0,0,0,0,0,0,0,0,0,0,0,0,0,0,0,0,0,0,},{0,0,0,0,0,0,0,0,0,0,0,0,0,0,0,0,0,0,1,0,0,0,0,0,0,1,1,1,0,0,0,0,0,0,1,0,0,0,0,0,0,0,0,0,0,0,0,0,0,0,0,0,0,0,0,0,0,0,0,0,0,0,0,0,},{0,0,0,0,0,0,0,0,0,0,0,0,0,0,0,0,0,0,0,1,0,0,0,0,0,0,1,1,1,0,0,0,0,0,0,1,0,0,0,0,0,0,0,0,0,0,0,0,0,0,0,0,0,0,0,0,0,0,0,0,0,0,0,0,},{0,0,0,0,0,0,0,0,0,0,0,0,0,0,0,0,0,0,0,0,1,0,0,0,0,0,0,1,1,1,0,0,0,0,0,0,1,0,0,0,0,0,0,0,0,0,0,0,0,0,0,0,0,0,0,0,0,0,0,0,0,0,0,0,},{0,0,0,0,0,0,0,0,0,0,0,0,0,0,0,0,0,0,0,0,0,1,0,0,0,0,0,0,1,1,1,0,0,0,0,0,0,1,0,0,0,0,0,0,0,0,0,0,0,0,0,0,0,0,0,0,0,0,0,0,0,0,0,0,},{0,0,0,0,0,0,0,0,0,0,0,0,0,0,0,0,0,0,0,0,0,0,1,0,0,0,0,0,0,1,1,1,0,0,0,0,0,0,1,0,0,0,0,0,0,0,0,0,0,0,0,0,0,0,0,0,0,0,0,0,0,0,0,0,},{0,0,0,0,0,0,0,0,0,0,0,0,0,0,0,0,0,0,0,0,0,0,0,1,0,0,0,0,0,0,1,1,0,0,0,0,0,0,0,1,0,0,0,0,0,0,0,0,0,0,0,0,0,0,0,0,0,0,0,0,0,0,0,0,},{0,0,0,0,0,0,0,0,0,0,0,0,0,0,0,0,0,0,0,0,0,0,0,0,1,0,0,0,0,0,0,0,1,1,0,0,0,0,0,0,1,0,0,0,0,0,0,0,0,0,0,0,0,0,0,0,0,0,0,0,0,0,0,0,},{0,0,0,0,0,0,0,0,0,0,0,0,0,0,0,0,0,0,0,0,0,0,0,0,0,1,0,0,0,0,0,0,1,1,1,0,0,0,0,0,0,1,0,0,0,0,0,0,0,0,0,0,0,0,0,0,0,0,0,0,0,0,0,0,},{0,0,0,0,0,0,0,0,0,0,0,0,0,0,0,0,0,0,0,0,0,0,0,0,0,0,1,0,0,0,0,0,0,1,1,1,0,0,0,0,0,0,1,0,0,0,0,0,0,0,0,0,0,0,0,0,0,0,0,0,0,0,0,0,},{0,0,0,0,0,0,0,0,0,0,0,0,0,0,0,0,0,0,0,0,0,0,0,0,0,0,0,1,0,0,0,0,0,0,1,1,1,0,0,0,0,0,0,1,0,0,0,0,0,0,0,0,0,0,0,0,0,0,0,0,0,0,0,0,},{0,0,0,0,0,0,0,0,0,0,0,0,0,0,0,0,0,0,0,0,0,0,0,0,0,0,0,0,1,0,0,0,0,0,0,1,1,1,0,0,0,0,0,0,1,0,0,0,0,0,0,0,0,0,0,0,0,0,0,0,0,0,0,0,},{0,0,0,0,0,0,0,0,0,0,0,0,0,0,0,0,0,0,0,0,0,0,0,0,0,0,0,0,0,1,0,0,0,0,0,0,1,1,1,0,0,0,0,0,0,1,0,0,0,0,0,0,0,0,0,0,0,0,0,0,0,0,0,0,},{0,0,0,0,0,0,0,0,0,0,0,0,0,0,0,0,0,0,0,0,0,0,0,0,0,0,0,0,0,0,1,0,0,0,0,0,0,1,1,1,0,0,0,0,0,0,1,0,0,0,0,0,0,0,0,0,0,0,0,0,0,0,0,0,},{0,0,0,0,0,0,0,0,0,0,0,0,0,0,0,0,0,0,0,0,0,0,0,0,0,0,0,0,0,0,0,1,0,0,0,0,0,0,1,1,0,0,0,0,0,0,0,1,0,0,0,0,0,0,0,0,0,0,0,0,0,0,0,0,},{0,0,0,0,0,0,0,0,0,0,0,0,0,0,0,0,0,0,0,0,0,0,0,0,0,0,0,0,0,0,0,0,1,0,0,0,0,0,0,0,1,1,0,0,0,0,0,0,1,0,0,0,0,0,0,0,0,0,0,0,0,0,0,0,},{0,0,0,0,0,0,0,0,0,0,0,0,0,0,0,0,0,0,0,0,0,0,0,0,0,0,0,0,0,0,0,0,0,1,0,0,0,0,0,0,1,1,1,0,0,0,0,0,0,1,0,0,0,0,0,0,0,0,0,0,0,0,0,0,},{0,0,0,0,0,0,0,0,0,0,0,0,0,0,0,0,0,0,0,0,0,0,0,0,0,0,0,0,0,0,0,0,0,0,1,0,0,0,0,0,0,1,1,1,0,0,0,0,0,0,1,0,0,0,0,0,0,0,0,0,0,0,0,0,},{0,0,0,0,0,0,0,0,0,0,0,0,0,0,0,0,0,0,0,0,0,0,0,0,0,0,0,0,0,0,0,0,0,0,0,1,0,0,0,0,0,0,1,1,1,0,0,0,0,0,0,1,0,0,0,0,0,0,0,0,0,0,0,0,},{0,0,0,0,0,0,0,0,0,0,0,0,0,0,0,0,0,0,0,0,0,0,0,0,0,0,0,0,0,0,0,0,0,0,0,0,1,0,0,0,0,0,0,1,1,1,0,0,0,0,0,0,1,0,0,0,0,0,0,0,0,0,0,0,},{0,0,0,0,0,0,0,0,0,0,0,0,0,0,0,0,0,0,0,0,0,0,0,0,0,0,0,0,0,0,0,0,0,0,0,0,0,1,0,0,0,0,0,0,1,1,1,0,0,0,0,0,0,1,0,0,0,0,0,0,0,0,0,0,},{0,0,0,0,0,0,0,0,0,0,0,0,0,0,0,0,0,0,0,0,0,0,0,0,0,0,0,0,0,0,0,0,0,0,0,0,0,0,1,0,0,0,0,0,0,1,1,1,0,0,0,0,0,0,1,0,0,0,0,0,0,0,0,0,},{0,0,0,0,0,0,0,0,0,0,0,0,0,0,0,0,0,0,0,0,0,0,0,0,0,0,0,0,0,0,0,0,0,0,0,0,0,0,0,1,0,0,0,0,0,0,1,1,0,0,0,0,0,0,0,1,0,0,0,0,0,0,0,0,},{0,0,0,0,0,0,0,0,0,0,0,0,0,0,0,0,0,0,0,0,0,0,0,0,0,0,0,0,0,0,0,0,0,0,0,0,0,0,0,0,1,0,0,0,0,0,0,0,1,1,0,0,0,0,0,0,1,0,0,0,0,0,0,0,},{0,0,0,0,0,0,0,0,0,0,0,0,0,0,0,0,0,0,0,0,0,0,0,0,0,0,0,0,0,0,0,0,0,0,0,0,0,0,0,0,0,1,0,0,0,0,0,0,1,1,1,0,0,0,0,0,0,1,0,0,0,0,0,0,},{0,0,0,0,0,0,0,0,0,0,0,0,0,0,0,0,0,0,0,0,0,0,0,0,0,0,0,0,0,0,0,0,0,0,0,0,0,0,0,0,0,0,1,0,0,0,0,0,0,1,1,1,0,0,0,0,0,0,1,0,0,0,0,0,},{0,0,0,0,0,0,0,0,0,0,0,0,0,0,0,0,0,0,0,0,0,0,0,0,0,0,0,0,0,0,0,0,0,0,0,0,0,0,0,0,0,0,0,1,0,0,0,0,0,0,1,1,1,0,0,0,0,0,0,1,0,0,0,0,},{0,0,0,0,0,0,0,0,0,0,0,0,0,0,0,0,0,0,0,0,0,0,0,0,0,0,0,0,0,0,0,0,0,0,0,0,0,0,0,0,0,0,0,0,1,0,0,0,0,0,0,1,1,1,0,0,0,0,0,0,1,0,0,0,},{0,0,0,0,0,0,0,0,0,0,0,0,0,0,0,0,0,0,0,0,0,0,0,0,0,0,0,0,0,0,0,0,0,0,0,0,0,0,0,0,0,0,0,0,0,1,0,0,0,0,0,0,1,1,1,0,0,0,0,0,0,1,0,0,},{0,0,0,0,0,0,0,0,0,0,0,0,0,0,0,0,0,0,0,0,0,0,0,0,0,0,0,0,0,0,0,0,0,0,0,0,0,0,0,0,0,0,0,0,0,0,1,0,0,0,0,0,0,1,1,1,0,0,0,0,0,0,1,0,},{0,0,0,0,0,0,0,0,0,0,0,0,0,0,0,0,0,0,0,0,0,0,0,0,0,0,0,0,0,0,0,0,0,0,0,0,0,0,0,0,0,0,0,0,0,0,0,1,0,0,0,0,0,0,1,1,0,0,0,0,0,0,0,1,},{0,0,0,0,0,0,0,0,0,0,0,0,0,0,0,0,0,0,0,0,0,0,0,0,0,0,0,0,0,0,0,0,0,0,0,0,0,0,0,0,0,0,0,0,0,0,0,0,1,0,0,0,0,0,0,0,1,1,0,0,0,0,0,0,},{0,0,0,0,0,0,0,0,0,0,0,0,0,0,0,0,0,0,0,0,0,0,0,0,0,0,0,0,0,0,0,0,0,0,0,0,0,0,0,0,0,0,0,0,0,0,0,0,0,1,0,0,0,0,0,0,1,1,1,0,0,0,0,0,},{0,0,0,0,0,0,0,0,0,0,0,0,0,0,0,0,0,0,0,0,0,0,0,0,0,0,0,0,0,0,0,0,0,0,0,0,0,0,0,0,0,0,0,0,0,0,0,0,0,0,1,0,0,0,0,0,0,1,1,1,0,0,0,0,},{0,0,0,0,0,0,0,0,0,0,0,0,0,0,0,0,0,0,0,0,0,0,0,0,0,0,0,0,0,0,0,0,0,0,0,0,0,0,0,0,0,0,0,0,0,0,0,0,0,0,0,1,0,0,0,0,0,0,1,1,1,0,0,0,},{0,0,0,0,0,0,0,0,0,0,0,0,0,0,0,0,0,0,0,0,0,0,0,0,0,0,0,0,0,0,0,0,0,0,0,0,0,0,0,0,0,0,0,0,0,0,0,0,0,0,0,0,1,0,0,0,0,0,0,1,1,1,0,0,},{0,0,0,0,0,0,0,0,0,0,0,0,0,0,0,0,0,0,0,0,0,0,0,0,0,0,0,0,0,0,0,0,0,0,0,0,0,0,0,0,0,0,0,0,0,0,0,0,0,0,0,0,0,1,0,0,0,0,0,0,1,1,1,0,},{0,0,0,0,0,0,0,0,0,0,0,0,0,0,0,0,0,0,0,0,0,0,0,0,0,0,0,0,0,0,0,0,0,0,0,0,0,0,0,0,0,0,0,0,0,0,0,0,0,0,0,0,0,0,1,0,0,0,0,0,0,1,1,1,},{0,0,0,0,0,0,0,0,0,0,0,0,0,0,0,0,0,0,0,0,0,0,0,0,0,0,0,0,0,0,0,0,0,0,0,0,0,0,0,0,0,0,0,0,0,0,0,0,0,0,0,0,0,0,0,1,0,0,0,0,0,0,1,1,}};
 2000368:	e0ef7f04 	addi	r3,fp,-16900
 200036c:	00900004 	movi	r2,16384
 2000370:	1809883a 	mov	r4,r3
 2000374:	000b883a 	mov	r5,zero
 2000378:	100d883a 	mov	r6,r2
 200037c:	2003f700 	call	2003f70 <memset>
 2000380:	00800044 	movi	r2,1
 2000384:	e0af7f15 	stw	r2,-16900(fp)
 2000388:	00800044 	movi	r2,1
 200038c:	e0af8015 	stw	r2,-16896(fp)
 2000390:	00800044 	movi	r2,1
 2000394:	e0af8715 	stw	r2,-16868(fp)
 2000398:	00800044 	movi	r2,1
 200039c:	e0afbf15 	stw	r2,-16644(fp)
 20003a0:	00800044 	movi	r2,1
 20003a4:	e0afc015 	stw	r2,-16640(fp)
 20003a8:	00800044 	movi	r2,1
 20003ac:	e0afc115 	stw	r2,-16636(fp)
 20003b0:	00800044 	movi	r2,1
 20003b4:	e0afc815 	stw	r2,-16608(fp)
 20003b8:	00800044 	movi	r2,1
 20003bc:	e0b00015 	stw	r2,-16384(fp)
 20003c0:	00800044 	movi	r2,1
 20003c4:	e0b00115 	stw	r2,-16380(fp)
 20003c8:	00800044 	movi	r2,1
 20003cc:	e0b00215 	stw	r2,-16376(fp)
 20003d0:	00800044 	movi	r2,1
 20003d4:	e0b00915 	stw	r2,-16348(fp)
 20003d8:	00800044 	movi	r2,1
 20003dc:	e0b04115 	stw	r2,-16124(fp)
 20003e0:	00800044 	movi	r2,1
 20003e4:	e0b04215 	stw	r2,-16120(fp)
 20003e8:	00800044 	movi	r2,1
 20003ec:	e0b04315 	stw	r2,-16116(fp)
 20003f0:	00800044 	movi	r2,1
 20003f4:	e0b04a15 	stw	r2,-16088(fp)
 20003f8:	00800044 	movi	r2,1
 20003fc:	e0b08215 	stw	r2,-15864(fp)
 2000400:	00800044 	movi	r2,1
 2000404:	e0b08315 	stw	r2,-15860(fp)
 2000408:	00800044 	movi	r2,1
 200040c:	e0b08415 	stw	r2,-15856(fp)
 2000410:	00800044 	movi	r2,1
 2000414:	e0b08b15 	stw	r2,-15828(fp)
 2000418:	00800044 	movi	r2,1
 200041c:	e0b0c315 	stw	r2,-15604(fp)
 2000420:	00800044 	movi	r2,1
 2000424:	e0b0c415 	stw	r2,-15600(fp)
 2000428:	00800044 	movi	r2,1
 200042c:	e0b0c515 	stw	r2,-15596(fp)
 2000430:	00800044 	movi	r2,1
 2000434:	e0b0cc15 	stw	r2,-15568(fp)
 2000438:	00800044 	movi	r2,1
 200043c:	e0b10415 	stw	r2,-15344(fp)
 2000440:	00800044 	movi	r2,1
 2000444:	e0b10515 	stw	r2,-15340(fp)
 2000448:	00800044 	movi	r2,1
 200044c:	e0b10615 	stw	r2,-15336(fp)
 2000450:	00800044 	movi	r2,1
 2000454:	e0b10d15 	stw	r2,-15308(fp)
 2000458:	00800044 	movi	r2,1
 200045c:	e0b14515 	stw	r2,-15084(fp)
 2000460:	00800044 	movi	r2,1
 2000464:	e0b14615 	stw	r2,-15080(fp)
 2000468:	00800044 	movi	r2,1
 200046c:	e0b14e15 	stw	r2,-15048(fp)
 2000470:	00800044 	movi	r2,1
 2000474:	e0b17f15 	stw	r2,-14852(fp)
 2000478:	00800044 	movi	r2,1
 200047c:	e0b18715 	stw	r2,-14820(fp)
 2000480:	00800044 	movi	r2,1
 2000484:	e0b18815 	stw	r2,-14816(fp)
 2000488:	00800044 	movi	r2,1
 200048c:	e0b18f15 	stw	r2,-14788(fp)
 2000490:	00800044 	movi	r2,1
 2000494:	e0b1c015 	stw	r2,-14592(fp)
 2000498:	00800044 	movi	r2,1
 200049c:	e0b1c715 	stw	r2,-14564(fp)
 20004a0:	00800044 	movi	r2,1
 20004a4:	e0b1c815 	stw	r2,-14560(fp)
 20004a8:	00800044 	movi	r2,1
 20004ac:	e0b1c915 	stw	r2,-14556(fp)
 20004b0:	00800044 	movi	r2,1
 20004b4:	e0b1d015 	stw	r2,-14528(fp)
 20004b8:	00800044 	movi	r2,1
 20004bc:	e0b20115 	stw	r2,-14332(fp)
 20004c0:	00800044 	movi	r2,1
 20004c4:	e0b20815 	stw	r2,-14304(fp)
 20004c8:	00800044 	movi	r2,1
 20004cc:	e0b20915 	stw	r2,-14300(fp)
 20004d0:	00800044 	movi	r2,1
 20004d4:	e0b20a15 	stw	r2,-14296(fp)
 20004d8:	00800044 	movi	r2,1
 20004dc:	e0b21115 	stw	r2,-14268(fp)
 20004e0:	00800044 	movi	r2,1
 20004e4:	e0b24215 	stw	r2,-14072(fp)
 20004e8:	00800044 	movi	r2,1
 20004ec:	e0b24915 	stw	r2,-14044(fp)
 20004f0:	00800044 	movi	r2,1
 20004f4:	e0b24a15 	stw	r2,-14040(fp)
 20004f8:	00800044 	movi	r2,1
 20004fc:	e0b24b15 	stw	r2,-14036(fp)
 2000500:	00800044 	movi	r2,1
 2000504:	e0b25215 	stw	r2,-14008(fp)
 2000508:	00800044 	movi	r2,1
 200050c:	e0b28315 	stw	r2,-13812(fp)
 2000510:	00800044 	movi	r2,1
 2000514:	e0b28a15 	stw	r2,-13784(fp)
 2000518:	00800044 	movi	r2,1
 200051c:	e0b28b15 	stw	r2,-13780(fp)
 2000520:	00800044 	movi	r2,1
 2000524:	e0b28c15 	stw	r2,-13776(fp)
 2000528:	00800044 	movi	r2,1
 200052c:	e0b29315 	stw	r2,-13748(fp)
 2000530:	00800044 	movi	r2,1
 2000534:	e0b2c415 	stw	r2,-13552(fp)
 2000538:	00800044 	movi	r2,1
 200053c:	e0b2cb15 	stw	r2,-13524(fp)
 2000540:	00800044 	movi	r2,1
 2000544:	e0b2cc15 	stw	r2,-13520(fp)
 2000548:	00800044 	movi	r2,1
 200054c:	e0b2cd15 	stw	r2,-13516(fp)
 2000550:	00800044 	movi	r2,1
 2000554:	e0b2d415 	stw	r2,-13488(fp)
 2000558:	00800044 	movi	r2,1
 200055c:	e0b30515 	stw	r2,-13292(fp)
 2000560:	00800044 	movi	r2,1
 2000564:	e0b30c15 	stw	r2,-13264(fp)
 2000568:	00800044 	movi	r2,1
 200056c:	e0b30d15 	stw	r2,-13260(fp)
 2000570:	00800044 	movi	r2,1
 2000574:	e0b30e15 	stw	r2,-13256(fp)
 2000578:	00800044 	movi	r2,1
 200057c:	e0b31515 	stw	r2,-13228(fp)
 2000580:	00800044 	movi	r2,1
 2000584:	e0b34615 	stw	r2,-13032(fp)
 2000588:	00800044 	movi	r2,1
 200058c:	e0b34d15 	stw	r2,-13004(fp)
 2000590:	00800044 	movi	r2,1
 2000594:	e0b34e15 	stw	r2,-13000(fp)
 2000598:	00800044 	movi	r2,1
 200059c:	e0b35615 	stw	r2,-12968(fp)
 20005a0:	00800044 	movi	r2,1
 20005a4:	e0b38715 	stw	r2,-12772(fp)
 20005a8:	00800044 	movi	r2,1
 20005ac:	e0b38f15 	stw	r2,-12740(fp)
 20005b0:	00800044 	movi	r2,1
 20005b4:	e0b39015 	stw	r2,-12736(fp)
 20005b8:	00800044 	movi	r2,1
 20005bc:	e0b39715 	stw	r2,-12708(fp)
 20005c0:	00800044 	movi	r2,1
 20005c4:	e0b3c815 	stw	r2,-12512(fp)
 20005c8:	00800044 	movi	r2,1
 20005cc:	e0b3cf15 	stw	r2,-12484(fp)
 20005d0:	00800044 	movi	r2,1
 20005d4:	e0b3d015 	stw	r2,-12480(fp)
 20005d8:	00800044 	movi	r2,1
 20005dc:	e0b3d115 	stw	r2,-12476(fp)
 20005e0:	00800044 	movi	r2,1
 20005e4:	e0b3d815 	stw	r2,-12448(fp)
 20005e8:	00800044 	movi	r2,1
 20005ec:	e0b40915 	stw	r2,-12252(fp)
 20005f0:	00800044 	movi	r2,1
 20005f4:	e0b41015 	stw	r2,-12224(fp)
 20005f8:	00800044 	movi	r2,1
 20005fc:	e0b41115 	stw	r2,-12220(fp)
 2000600:	00800044 	movi	r2,1
 2000604:	e0b41215 	stw	r2,-12216(fp)
 2000608:	00800044 	movi	r2,1
 200060c:	e0b41915 	stw	r2,-12188(fp)
 2000610:	00800044 	movi	r2,1
 2000614:	e0b44a15 	stw	r2,-11992(fp)
 2000618:	00800044 	movi	r2,1
 200061c:	e0b45115 	stw	r2,-11964(fp)
 2000620:	00800044 	movi	r2,1
 2000624:	e0b45215 	stw	r2,-11960(fp)
 2000628:	00800044 	movi	r2,1
 200062c:	e0b45315 	stw	r2,-11956(fp)
 2000630:	00800044 	movi	r2,1
 2000634:	e0b45a15 	stw	r2,-11928(fp)
 2000638:	00800044 	movi	r2,1
 200063c:	e0b48b15 	stw	r2,-11732(fp)
 2000640:	00800044 	movi	r2,1
 2000644:	e0b49215 	stw	r2,-11704(fp)
 2000648:	00800044 	movi	r2,1
 200064c:	e0b49315 	stw	r2,-11700(fp)
 2000650:	00800044 	movi	r2,1
 2000654:	e0b49415 	stw	r2,-11696(fp)
 2000658:	00800044 	movi	r2,1
 200065c:	e0b49b15 	stw	r2,-11668(fp)
 2000660:	00800044 	movi	r2,1
 2000664:	e0b4cc15 	stw	r2,-11472(fp)
 2000668:	00800044 	movi	r2,1
 200066c:	e0b4d315 	stw	r2,-11444(fp)
 2000670:	00800044 	movi	r2,1
 2000674:	e0b4d415 	stw	r2,-11440(fp)
 2000678:	00800044 	movi	r2,1
 200067c:	e0b4d515 	stw	r2,-11436(fp)
 2000680:	00800044 	movi	r2,1
 2000684:	e0b4dc15 	stw	r2,-11408(fp)
 2000688:	00800044 	movi	r2,1
 200068c:	e0b50d15 	stw	r2,-11212(fp)
 2000690:	00800044 	movi	r2,1
 2000694:	e0b51415 	stw	r2,-11184(fp)
 2000698:	00800044 	movi	r2,1
 200069c:	e0b51515 	stw	r2,-11180(fp)
 20006a0:	00800044 	movi	r2,1
 20006a4:	e0b51615 	stw	r2,-11176(fp)
 20006a8:	00800044 	movi	r2,1
 20006ac:	e0b51d15 	stw	r2,-11148(fp)
 20006b0:	00800044 	movi	r2,1
 20006b4:	e0b54e15 	stw	r2,-10952(fp)
 20006b8:	00800044 	movi	r2,1
 20006bc:	e0b55515 	stw	r2,-10924(fp)
 20006c0:	00800044 	movi	r2,1
 20006c4:	e0b55615 	stw	r2,-10920(fp)
 20006c8:	00800044 	movi	r2,1
 20006cc:	e0b55e15 	stw	r2,-10888(fp)
 20006d0:	00800044 	movi	r2,1
 20006d4:	e0b58f15 	stw	r2,-10692(fp)
 20006d8:	00800044 	movi	r2,1
 20006dc:	e0b59715 	stw	r2,-10660(fp)
 20006e0:	00800044 	movi	r2,1
 20006e4:	e0b59815 	stw	r2,-10656(fp)
 20006e8:	00800044 	movi	r2,1
 20006ec:	e0b59f15 	stw	r2,-10628(fp)
 20006f0:	00800044 	movi	r2,1
 20006f4:	e0b5d015 	stw	r2,-10432(fp)
 20006f8:	00800044 	movi	r2,1
 20006fc:	e0b5d715 	stw	r2,-10404(fp)
 2000700:	00800044 	movi	r2,1
 2000704:	e0b5d815 	stw	r2,-10400(fp)
 2000708:	00800044 	movi	r2,1
 200070c:	e0b5d915 	stw	r2,-10396(fp)
 2000710:	00800044 	movi	r2,1
 2000714:	e0b5e015 	stw	r2,-10368(fp)
 2000718:	00800044 	movi	r2,1
 200071c:	e0b61115 	stw	r2,-10172(fp)
 2000720:	00800044 	movi	r2,1
 2000724:	e0b61815 	stw	r2,-10144(fp)
 2000728:	00800044 	movi	r2,1
 200072c:	e0b61915 	stw	r2,-10140(fp)
 2000730:	00800044 	movi	r2,1
 2000734:	e0b61a15 	stw	r2,-10136(fp)
 2000738:	00800044 	movi	r2,1
 200073c:	e0b62115 	stw	r2,-10108(fp)
 2000740:	00800044 	movi	r2,1
 2000744:	e0b65215 	stw	r2,-9912(fp)
 2000748:	00800044 	movi	r2,1
 200074c:	e0b65915 	stw	r2,-9884(fp)
 2000750:	00800044 	movi	r2,1
 2000754:	e0b65a15 	stw	r2,-9880(fp)
 2000758:	00800044 	movi	r2,1
 200075c:	e0b65b15 	stw	r2,-9876(fp)
 2000760:	00800044 	movi	r2,1
 2000764:	e0b66215 	stw	r2,-9848(fp)
 2000768:	00800044 	movi	r2,1
 200076c:	e0b69315 	stw	r2,-9652(fp)
 2000770:	00800044 	movi	r2,1
 2000774:	e0b69a15 	stw	r2,-9624(fp)
 2000778:	00800044 	movi	r2,1
 200077c:	e0b69b15 	stw	r2,-9620(fp)
 2000780:	00800044 	movi	r2,1
 2000784:	e0b69c15 	stw	r2,-9616(fp)
 2000788:	00800044 	movi	r2,1
 200078c:	e0b6a315 	stw	r2,-9588(fp)
 2000790:	00800044 	movi	r2,1
 2000794:	e0b6d415 	stw	r2,-9392(fp)
 2000798:	00800044 	movi	r2,1
 200079c:	e0b6db15 	stw	r2,-9364(fp)
 20007a0:	00800044 	movi	r2,1
 20007a4:	e0b6dc15 	stw	r2,-9360(fp)
 20007a8:	00800044 	movi	r2,1
 20007ac:	e0b6dd15 	stw	r2,-9356(fp)
 20007b0:	00800044 	movi	r2,1
 20007b4:	e0b6e415 	stw	r2,-9328(fp)
 20007b8:	00800044 	movi	r2,1
 20007bc:	e0b71515 	stw	r2,-9132(fp)
 20007c0:	00800044 	movi	r2,1
 20007c4:	e0b71c15 	stw	r2,-9104(fp)
 20007c8:	00800044 	movi	r2,1
 20007cc:	e0b71d15 	stw	r2,-9100(fp)
 20007d0:	00800044 	movi	r2,1
 20007d4:	e0b71e15 	stw	r2,-9096(fp)
 20007d8:	00800044 	movi	r2,1
 20007dc:	e0b72515 	stw	r2,-9068(fp)
 20007e0:	00800044 	movi	r2,1
 20007e4:	e0b75615 	stw	r2,-8872(fp)
 20007e8:	00800044 	movi	r2,1
 20007ec:	e0b75d15 	stw	r2,-8844(fp)
 20007f0:	00800044 	movi	r2,1
 20007f4:	e0b75e15 	stw	r2,-8840(fp)
 20007f8:	00800044 	movi	r2,1
 20007fc:	e0b76615 	stw	r2,-8808(fp)
 2000800:	00800044 	movi	r2,1
 2000804:	e0b79715 	stw	r2,-8612(fp)
 2000808:	00800044 	movi	r2,1
 200080c:	e0b79f15 	stw	r2,-8580(fp)
 2000810:	00800044 	movi	r2,1
 2000814:	e0b7a015 	stw	r2,-8576(fp)
 2000818:	00800044 	movi	r2,1
 200081c:	e0b7a715 	stw	r2,-8548(fp)
 2000820:	00800044 	movi	r2,1
 2000824:	e0b7d815 	stw	r2,-8352(fp)
 2000828:	00800044 	movi	r2,1
 200082c:	e0b7df15 	stw	r2,-8324(fp)
 2000830:	00800044 	movi	r2,1
 2000834:	e0b7e015 	stw	r2,-8320(fp)
 2000838:	00800044 	movi	r2,1
 200083c:	e0b7e115 	stw	r2,-8316(fp)
 2000840:	00800044 	movi	r2,1
 2000844:	e0b7e815 	stw	r2,-8288(fp)
 2000848:	00800044 	movi	r2,1
 200084c:	e0b81915 	stw	r2,-8092(fp)
 2000850:	00800044 	movi	r2,1
 2000854:	e0b82015 	stw	r2,-8064(fp)
 2000858:	00800044 	movi	r2,1
 200085c:	e0b82115 	stw	r2,-8060(fp)
 2000860:	00800044 	movi	r2,1
 2000864:	e0b82215 	stw	r2,-8056(fp)
 2000868:	00800044 	movi	r2,1
 200086c:	e0b82915 	stw	r2,-8028(fp)
 2000870:	00800044 	movi	r2,1
 2000874:	e0b85a15 	stw	r2,-7832(fp)
 2000878:	00800044 	movi	r2,1
 200087c:	e0b86115 	stw	r2,-7804(fp)
 2000880:	00800044 	movi	r2,1
 2000884:	e0b86215 	stw	r2,-7800(fp)
 2000888:	00800044 	movi	r2,1
 200088c:	e0b86315 	stw	r2,-7796(fp)
 2000890:	00800044 	movi	r2,1
 2000894:	e0b86a15 	stw	r2,-7768(fp)
 2000898:	00800044 	movi	r2,1
 200089c:	e0b89b15 	stw	r2,-7572(fp)
 20008a0:	00800044 	movi	r2,1
 20008a4:	e0b8a215 	stw	r2,-7544(fp)
 20008a8:	00800044 	movi	r2,1
 20008ac:	e0b8a315 	stw	r2,-7540(fp)
 20008b0:	00800044 	movi	r2,1
 20008b4:	e0b8a415 	stw	r2,-7536(fp)
 20008b8:	00800044 	movi	r2,1
 20008bc:	e0b8ab15 	stw	r2,-7508(fp)
 20008c0:	00800044 	movi	r2,1
 20008c4:	e0b8dc15 	stw	r2,-7312(fp)
 20008c8:	00800044 	movi	r2,1
 20008cc:	e0b8e315 	stw	r2,-7284(fp)
 20008d0:	00800044 	movi	r2,1
 20008d4:	e0b8e415 	stw	r2,-7280(fp)
 20008d8:	00800044 	movi	r2,1
 20008dc:	e0b8e515 	stw	r2,-7276(fp)
 20008e0:	00800044 	movi	r2,1
 20008e4:	e0b8ec15 	stw	r2,-7248(fp)
 20008e8:	00800044 	movi	r2,1
 20008ec:	e0b91d15 	stw	r2,-7052(fp)
 20008f0:	00800044 	movi	r2,1
 20008f4:	e0b92415 	stw	r2,-7024(fp)
 20008f8:	00800044 	movi	r2,1
 20008fc:	e0b92515 	stw	r2,-7020(fp)
 2000900:	00800044 	movi	r2,1
 2000904:	e0b92615 	stw	r2,-7016(fp)
 2000908:	00800044 	movi	r2,1
 200090c:	e0b92d15 	stw	r2,-6988(fp)
 2000910:	00800044 	movi	r2,1
 2000914:	e0b95e15 	stw	r2,-6792(fp)
 2000918:	00800044 	movi	r2,1
 200091c:	e0b96515 	stw	r2,-6764(fp)
 2000920:	00800044 	movi	r2,1
 2000924:	e0b96615 	stw	r2,-6760(fp)
 2000928:	00800044 	movi	r2,1
 200092c:	e0b96e15 	stw	r2,-6728(fp)
 2000930:	00800044 	movi	r2,1
 2000934:	e0b99f15 	stw	r2,-6532(fp)
 2000938:	00800044 	movi	r2,1
 200093c:	e0b9a715 	stw	r2,-6500(fp)
 2000940:	00800044 	movi	r2,1
 2000944:	e0b9a815 	stw	r2,-6496(fp)
 2000948:	00800044 	movi	r2,1
 200094c:	e0b9af15 	stw	r2,-6468(fp)
 2000950:	00800044 	movi	r2,1
 2000954:	e0b9e015 	stw	r2,-6272(fp)
 2000958:	00800044 	movi	r2,1
 200095c:	e0b9e715 	stw	r2,-6244(fp)
 2000960:	00800044 	movi	r2,1
 2000964:	e0b9e815 	stw	r2,-6240(fp)
 2000968:	00800044 	movi	r2,1
 200096c:	e0b9e915 	stw	r2,-6236(fp)
 2000970:	00800044 	movi	r2,1
 2000974:	e0b9f015 	stw	r2,-6208(fp)
 2000978:	00800044 	movi	r2,1
 200097c:	e0ba2115 	stw	r2,-6012(fp)
 2000980:	00800044 	movi	r2,1
 2000984:	e0ba2815 	stw	r2,-5984(fp)
 2000988:	00800044 	movi	r2,1
 200098c:	e0ba2915 	stw	r2,-5980(fp)
 2000990:	00800044 	movi	r2,1
 2000994:	e0ba2a15 	stw	r2,-5976(fp)
 2000998:	00800044 	movi	r2,1
 200099c:	e0ba3115 	stw	r2,-5948(fp)
 20009a0:	00800044 	movi	r2,1
 20009a4:	e0ba6215 	stw	r2,-5752(fp)
 20009a8:	00800044 	movi	r2,1
 20009ac:	e0ba6915 	stw	r2,-5724(fp)
 20009b0:	00800044 	movi	r2,1
 20009b4:	e0ba6a15 	stw	r2,-5720(fp)
 20009b8:	00800044 	movi	r2,1
 20009bc:	e0ba6b15 	stw	r2,-5716(fp)
 20009c0:	00800044 	movi	r2,1
 20009c4:	e0ba7215 	stw	r2,-5688(fp)
 20009c8:	00800044 	movi	r2,1
 20009cc:	e0baa315 	stw	r2,-5492(fp)
 20009d0:	00800044 	movi	r2,1
 20009d4:	e0baaa15 	stw	r2,-5464(fp)
 20009d8:	00800044 	movi	r2,1
 20009dc:	e0baab15 	stw	r2,-5460(fp)
 20009e0:	00800044 	movi	r2,1
 20009e4:	e0baac15 	stw	r2,-5456(fp)
 20009e8:	00800044 	movi	r2,1
 20009ec:	e0bab315 	stw	r2,-5428(fp)
 20009f0:	00800044 	movi	r2,1
 20009f4:	e0bae415 	stw	r2,-5232(fp)
 20009f8:	00800044 	movi	r2,1
 20009fc:	e0baeb15 	stw	r2,-5204(fp)
 2000a00:	00800044 	movi	r2,1
 2000a04:	e0baec15 	stw	r2,-5200(fp)
 2000a08:	00800044 	movi	r2,1
 2000a0c:	e0baed15 	stw	r2,-5196(fp)
 2000a10:	00800044 	movi	r2,1
 2000a14:	e0baf415 	stw	r2,-5168(fp)
 2000a18:	00800044 	movi	r2,1
 2000a1c:	e0bb2515 	stw	r2,-4972(fp)
 2000a20:	00800044 	movi	r2,1
 2000a24:	e0bb2c15 	stw	r2,-4944(fp)
 2000a28:	00800044 	movi	r2,1
 2000a2c:	e0bb2d15 	stw	r2,-4940(fp)
 2000a30:	00800044 	movi	r2,1
 2000a34:	e0bb2e15 	stw	r2,-4936(fp)
 2000a38:	00800044 	movi	r2,1
 2000a3c:	e0bb3515 	stw	r2,-4908(fp)
 2000a40:	00800044 	movi	r2,1
 2000a44:	e0bb6615 	stw	r2,-4712(fp)
 2000a48:	00800044 	movi	r2,1
 2000a4c:	e0bb6d15 	stw	r2,-4684(fp)
 2000a50:	00800044 	movi	r2,1
 2000a54:	e0bb6e15 	stw	r2,-4680(fp)
 2000a58:	00800044 	movi	r2,1
 2000a5c:	e0bb7615 	stw	r2,-4648(fp)
 2000a60:	00800044 	movi	r2,1
 2000a64:	e0bba715 	stw	r2,-4452(fp)
 2000a68:	00800044 	movi	r2,1
 2000a6c:	e0bbaf15 	stw	r2,-4420(fp)
 2000a70:	00800044 	movi	r2,1
 2000a74:	e0bbb015 	stw	r2,-4416(fp)
 2000a78:	00800044 	movi	r2,1
 2000a7c:	e0bbb715 	stw	r2,-4388(fp)
 2000a80:	00800044 	movi	r2,1
 2000a84:	e0bbe815 	stw	r2,-4192(fp)
 2000a88:	00800044 	movi	r2,1
 2000a8c:	e0bbef15 	stw	r2,-4164(fp)
 2000a90:	00800044 	movi	r2,1
 2000a94:	e0bbf015 	stw	r2,-4160(fp)
 2000a98:	00800044 	movi	r2,1
 2000a9c:	e0bbf115 	stw	r2,-4156(fp)
 2000aa0:	00800044 	movi	r2,1
 2000aa4:	e0bbf815 	stw	r2,-4128(fp)
 2000aa8:	00800044 	movi	r2,1
 2000aac:	e0bc2915 	stw	r2,-3932(fp)
 2000ab0:	00800044 	movi	r2,1
 2000ab4:	e0bc3015 	stw	r2,-3904(fp)
 2000ab8:	00800044 	movi	r2,1
 2000abc:	e0bc3115 	stw	r2,-3900(fp)
 2000ac0:	00800044 	movi	r2,1
 2000ac4:	e0bc3215 	stw	r2,-3896(fp)
 2000ac8:	00800044 	movi	r2,1
 2000acc:	e0bc3915 	stw	r2,-3868(fp)
 2000ad0:	00800044 	movi	r2,1
 2000ad4:	e0bc6a15 	stw	r2,-3672(fp)
 2000ad8:	00800044 	movi	r2,1
 2000adc:	e0bc7115 	stw	r2,-3644(fp)
 2000ae0:	00800044 	movi	r2,1
 2000ae4:	e0bc7215 	stw	r2,-3640(fp)
 2000ae8:	00800044 	movi	r2,1
 2000aec:	e0bc7315 	stw	r2,-3636(fp)
 2000af0:	00800044 	movi	r2,1
 2000af4:	e0bc7a15 	stw	r2,-3608(fp)
 2000af8:	00800044 	movi	r2,1
 2000afc:	e0bcab15 	stw	r2,-3412(fp)
 2000b00:	00800044 	movi	r2,1
 2000b04:	e0bcb215 	stw	r2,-3384(fp)
 2000b08:	00800044 	movi	r2,1
 2000b0c:	e0bcb315 	stw	r2,-3380(fp)
 2000b10:	00800044 	movi	r2,1
 2000b14:	e0bcb415 	stw	r2,-3376(fp)
 2000b18:	00800044 	movi	r2,1
 2000b1c:	e0bcbb15 	stw	r2,-3348(fp)
 2000b20:	00800044 	movi	r2,1
 2000b24:	e0bcec15 	stw	r2,-3152(fp)
 2000b28:	00800044 	movi	r2,1
 2000b2c:	e0bcf315 	stw	r2,-3124(fp)
 2000b30:	00800044 	movi	r2,1
 2000b34:	e0bcf415 	stw	r2,-3120(fp)
 2000b38:	00800044 	movi	r2,1
 2000b3c:	e0bcf515 	stw	r2,-3116(fp)
 2000b40:	00800044 	movi	r2,1
 2000b44:	e0bcfc15 	stw	r2,-3088(fp)
 2000b48:	00800044 	movi	r2,1
 2000b4c:	e0bd2d15 	stw	r2,-2892(fp)
 2000b50:	00800044 	movi	r2,1
 2000b54:	e0bd3415 	stw	r2,-2864(fp)
 2000b58:	00800044 	movi	r2,1
 2000b5c:	e0bd3515 	stw	r2,-2860(fp)
 2000b60:	00800044 	movi	r2,1
 2000b64:	e0bd3615 	stw	r2,-2856(fp)
 2000b68:	00800044 	movi	r2,1
 2000b6c:	e0bd3d15 	stw	r2,-2828(fp)
 2000b70:	00800044 	movi	r2,1
 2000b74:	e0bd6e15 	stw	r2,-2632(fp)
 2000b78:	00800044 	movi	r2,1
 2000b7c:	e0bd7515 	stw	r2,-2604(fp)
 2000b80:	00800044 	movi	r2,1
 2000b84:	e0bd7615 	stw	r2,-2600(fp)
 2000b88:	00800044 	movi	r2,1
 2000b8c:	e0bd7e15 	stw	r2,-2568(fp)
 2000b90:	00800044 	movi	r2,1
 2000b94:	e0bdaf15 	stw	r2,-2372(fp)
 2000b98:	00800044 	movi	r2,1
 2000b9c:	e0bdb715 	stw	r2,-2340(fp)
 2000ba0:	00800044 	movi	r2,1
 2000ba4:	e0bdb815 	stw	r2,-2336(fp)
 2000ba8:	00800044 	movi	r2,1
 2000bac:	e0bdf015 	stw	r2,-2112(fp)
 2000bb0:	00800044 	movi	r2,1
 2000bb4:	e0bdf715 	stw	r2,-2084(fp)
 2000bb8:	00800044 	movi	r2,1
 2000bbc:	e0bdf815 	stw	r2,-2080(fp)
 2000bc0:	00800044 	movi	r2,1
 2000bc4:	e0bdf915 	stw	r2,-2076(fp)
 2000bc8:	00800044 	movi	r2,1
 2000bcc:	e0be3115 	stw	r2,-1852(fp)
 2000bd0:	00800044 	movi	r2,1
 2000bd4:	e0be3815 	stw	r2,-1824(fp)
 2000bd8:	00800044 	movi	r2,1
 2000bdc:	e0be3915 	stw	r2,-1820(fp)
 2000be0:	00800044 	movi	r2,1
 2000be4:	e0be3a15 	stw	r2,-1816(fp)
 2000be8:	00800044 	movi	r2,1
 2000bec:	e0be7215 	stw	r2,-1592(fp)
 2000bf0:	00800044 	movi	r2,1
 2000bf4:	e0be7915 	stw	r2,-1564(fp)
 2000bf8:	00800044 	movi	r2,1
 2000bfc:	e0be7a15 	stw	r2,-1560(fp)
 2000c00:	00800044 	movi	r2,1
 2000c04:	e0be7b15 	stw	r2,-1556(fp)
 2000c08:	00800044 	movi	r2,1
 2000c0c:	e0beb315 	stw	r2,-1332(fp)
 2000c10:	00800044 	movi	r2,1
 2000c14:	e0beba15 	stw	r2,-1304(fp)
 2000c18:	00800044 	movi	r2,1
 2000c1c:	e0bebb15 	stw	r2,-1300(fp)
 2000c20:	00800044 	movi	r2,1
 2000c24:	e0bebc15 	stw	r2,-1296(fp)
 2000c28:	00800044 	movi	r2,1
 2000c2c:	e0bef415 	stw	r2,-1072(fp)
 2000c30:	00800044 	movi	r2,1
 2000c34:	e0befb15 	stw	r2,-1044(fp)
 2000c38:	00800044 	movi	r2,1
 2000c3c:	e0befc15 	stw	r2,-1040(fp)
 2000c40:	00800044 	movi	r2,1
 2000c44:	e0befd15 	stw	r2,-1036(fp)
 2000c48:	00800044 	movi	r2,1
 2000c4c:	e0bf3515 	stw	r2,-812(fp)
 2000c50:	00800044 	movi	r2,1
 2000c54:	e0bf3c15 	stw	r2,-784(fp)
 2000c58:	00800044 	movi	r2,1
 2000c5c:	e0bf3d15 	stw	r2,-780(fp)
 2000c60:	00800044 	movi	r2,1
 2000c64:	e0bf3e15 	stw	r2,-776(fp)
 2000c68:	00a00614 	movui	r2,32792
 2000c6c:	017ffff4 	movhi	r5,65535
 2000c70:	295f7004 	addi	r5,r5,32192
 2000c74:	2f0b883a 	add	r5,r5,fp
 2000c78:	2885883a 	add	r2,r5,r2
 2000c7c:	00c00044 	movi	r3,1
 2000c80:	10c00015 	stw	r3,0(r2)
 2000c84:	00a00d14 	movui	r2,32820
 2000c88:	01bffff4 	movhi	r6,65535
 2000c8c:	319f7004 	addi	r6,r6,32192
 2000c90:	370d883a 	add	r6,r6,fp
 2000c94:	3085883a 	add	r2,r6,r2
 2000c98:	00c00044 	movi	r3,1
 2000c9c:	10c00015 	stw	r3,0(r2)
 2000ca0:	00a00e14 	movui	r2,32824
 2000ca4:	00fffff4 	movhi	r3,65535
 2000ca8:	18df7004 	addi	r3,r3,32192
 2000cac:	1f07883a 	add	r3,r3,fp
 2000cb0:	1885883a 	add	r2,r3,r2
 2000cb4:	00c00044 	movi	r3,1
 2000cb8:	10c00015 	stw	r3,0(r2)

		  unsigned int inverse[64][64]={{1,1,0,1,1,1,0,0,1,0,0,0,1,0,1,0,0,0,0,0,0,1,1,1,1,0,0,0,0,0,0,0,1,1,0,0,0,1,1,1,1,0,1,0,1,0,1,0,0,1,1,0,1,1,0,0,0,0,1,0,1,0,0,0,},{1,1,0,1,0,1,1,0,0,1,0,1,0,0,0,1,0,0,0,0,1,1,0,1,0,1,0,0,0,0,0,0,1,1,1,0,1,1,0,1,0,0,0,0,0,0,0,1,1,1,1,0,1,1,1,0,0,1,0,0,0,1,0,0,},{0,0,0,1,1,0,1,1,0,0,0,0,0,0,0,0,0,0,0,1,1,0,1,1,0,0,1,0,0,0,0,0,0,1,1,0,1,0,1,1,1,0,1,0,1,0,0,0,1,1,0,0,0,1,1,1,1,0,0,0,0,0,1,0,},{1,1,1,0,1,1,0,1,0,1,0,1,0,0,0,1,0,0,1,1,0,1,1,0,0,0,0,1,0,0,0,0,0,0,0,0,1,1,1,0,0,0,0,0,0,1,0,1,0,0,0,0,0,0,1,1,0,0,0,0,0,0,0,1,},{1,0,1,1,0,1,1,1,1,0,0,0,1,0,1,0,0,1,1,0,1,1,0,0,0,0,0,0,1,0,0,0,0,1,1,1,0,0,0,0,1,0,1,0,0,0,0,0,1,1,0,0,0,0,0,0,1,0,0,0,0,0,0,0,},{1,1,0,1,1,0,0,0,0,0,0,0,0,0,0,0,1,1,0,1,1,0,0,0,0,0,0,0,0,1,0,0,1,1,0,1,0,1,1,0,0,0,0,1,0,1,0,1,1,1,1,0,0,0,1,1,0,1,0,0,0,0,0,1,},{0,1,1,0,1,0,1,1,1,0,0,0,1,0,1,0,1,0,1,1,0,0,0,0,0,0,0,0,0,0,1,0,1,0,1,1,0,1,1,1,1,0,0,0,0,0,0,0,0,1,1,1,0,1,1,1,0,0,1,0,0,0,1,0,},{0,0,1,1,1,0,1,1,0,1,0,1,0,0,0,1,1,1,1,0,0,0,0,0,0,0,0,0,0,0,0,1,1,1,1,0,0,0,1,1,0,1,0,1,0,1,0,1,0,0,1,1,0,1,1,0,0,0,0,1,0,1,0,0,},{1,0,0,0,1,0,1,0,1,1,0,1,1,0,1,1,0,0,0,0,1,0,1,0,1,1,0,0,0,0,0,0,0,0,1,0,1,0,1,0,1,0,1,0,1,0,1,1,1,0,0,0,0,0,1,0,0,1,1,0,1,1,0,0,},{0,1,0,1,0,0,0,1,1,1,0,1,1,0,1,1,0,0,0,1,0,0,0,1,1,1,1,0,0,0,0,0,0,1,0,0,0,0,0,1,0,0,0,0,0,0,1,1,0,1,0,0,0,1,0,1,1,1,1,0,1,1,1,0,},{0,0,0,0,0,0,0,0,0,0,0,0,0,0,0,0,0,0,1,0,0,0,0,0,0,1,1,1,0,0,0,0,1,0,0,0,1,0,0,0,1,0,1,0,1,1,0,0,0,0,1,0,1,0,1,0,1,1,0,0,0,1,1,1,},{0,1,0,1,0,0,0,1,1,1,0,1,1,0,1,1,0,1,0,0,0,0,0,1,0,0,1,1,1,0,0,0,0,0,0,1,0,1,0,1,0,0,0,0,1,1,0,1,0,0,0,0,0,1,0,0,0,0,0,0,0,0,1,1,},{1,0,0,0,1,0,1,0,1,1,0,1,1,0,1,1,1,0,0,0,0,0,1,0,0,0,0,1,1,1,0,0,1,0,1,0,1,0,0,0,1,0,1,1,0,0,0,0,0,0,1,0,0,0,0,0,1,1,0,0,0,0,0,0,},{0,0,0,0,0,0,0,0,0,0,0,0,0,0,0,0,0,0,0,0,0,1,0,0,0,0,0,0,1,1,1,0,0,0,0,1,0,0,0,1,0,0,1,1,0,1,0,1,0,1,0,1,0,1,0,0,1,1,1,0,0,0,1,1,},{1,0,0,0,1,0,1,0,1,1,0,1,1,0,1,1,1,0,0,0,1,0,0,0,0,0,0,0,0,1,1,1,1,0,0,0,0,0,1,0,1,1,0,0,0,0,0,0,1,0,1,0,0,0,1,0,0,1,1,1,0,1,1,1,},{0,1,0,1,0,0,0,1,1,1,0,1,1,0,1,1,0,1,0,1,0,0,0,0,0,0,0,0,0,0,1,1,0,1,0,1,0,1,0,0,1,1,0,1,0,1,0,1,0,1,0,0,0,0,0,1,0,0,1,1,0,1,1,0,},{0,0,0,0,0,1,1,1,0,0,0,0,1,0,1,0,0,0,0,1,1,1,0,0,1,0,1,0,0,0,0,0,1,0,1,0,1,1,0,0,0,0,0,0,0,0,1,0,1,0,1,0,1,0,1,1,1,0,1,0,1,0,1,0,},{0,0,0,0,1,1,0,1,0,0,0,1,0,0,0,1,0,0,1,1,0,1,1,0,0,0,0,1,0,0,0,0,0,0,0,0,1,1,1,0,0,0,0,0,0,1,0,1,0,0,0,0,0,0,1,1,0,0,0,0,0,0,0,1,},{0,0,0,1,1,0,1,1,0,0,1,0,0,0,0,0,0,1,1,0,1,0,1,1,1,0,0,0,1,0,0,0,1,0,1,1,0,1,1,1,0,0,0,0,1,0,1,0,1,0,1,0,1,1,0,0,1,0,1,0,1,0,0,0,},{0,0,1,1,0,1,1,0,0,1,0,0,0,0,0,1,1,1,0,1,0,1,0,1,0,1,0,0,0,1,0,0,0,0,1,1,1,0,1,1,0,0,0,1,0,1,0,0,0,0,0,0,1,1,0,1,0,0,0,0,0,1,0,1,},{0,1,1,0,1,1,0,0,1,0,0,0,0,0,1,0,1,0,1,0,1,0,1,1,0,0,1,0,0,0,1,0,1,1,0,1,1,1,0,0,0,0,1,0,1,0,0,0,1,0,1,1,0,0,0,0,1,0,1,0,0,0,0,0,},{1,1,0,1,1,0,0,0,0,0,0,0,0,1,0,0,1,1,0,1,0,1,1,0,0,0,0,1,0,0,0,1,1,1,1,0,1,1,0,1,0,1,0,1,0,0,0,0,0,0,1,1,0,1,0,1,0,0,0,1,0,1,0,1,},{1,0,1,1,0,0,0,0,1,0,0,0,1,0,0,0,0,1,1,0,1,1,0,0,0,0,0,0,1,0,0,0,0,1,1,1,0,0,0,0,1,0,1,0,0,0,0,0,1,1,0,0,0,0,0,0,1,0,0,0,0,0,0,0,},{1,1,1,0,0,0,0,0,0,1,0,1,0,0,0,0,0,0,1,1,1,0,0,0,0,0,0,0,0,1,0,1,0,0,1,1,0,1,0,1,0,1,0,0,0,0,0,0,1,1,0,1,0,1,0,1,0,1,0,1,0,1,0,1,},{1,0,0,0,0,0,0,0,1,1,0,0,0,0,0,0,1,0,1,0,0,0,0,0,0,1,1,1,0,0,0,0,1,0,0,0,1,0,0,0,1,0,1,0,1,1,0,0,0,0,1,0,1,0,1,0,1,1,0,0,0,1,1,1,},{0,1,0,0,0,0,0,0,1,1,1,0,0,0,0,0,0,0,0,1,0,0,0,0,1,1,0,1,1,0,0,0,0,1,0,1,0,1,0,0,0,0,0,0,1,1,1,0,0,1,0,0,0,0,0,1,1,1,1,0,1,1,0,1,},{0,0,1,0,0,0,0,0,0,1,1,1,0,0,0,0,1,0,0,0,1,0,0,0,1,0,1,0,1,1,0,0,0,0,0,0,1,0,1,0,1,0,1,1,0,1,1,1,1,0,0,0,1,0,0,0,0,1,1,0,1,0,1,1,},{0,0,0,1,0,0,0,0,0,0,1,1,1,0,0,0,0,1,0,0,0,1,0,0,1,1,0,1,0,1,1,0,0,1,0,0,0,1,0,1,0,0,1,1,1,0,1,1,0,0,0,1,0,1,0,1,0,0,0,0,1,1,1,0,},{0,0,0,0,1,0,0,0,0,0,0,1,1,1,0,0,0,0,1,0,0,0,1,0,0,1,1,0,1,0,1,1,1,0,1,0,0,0,1,0,1,1,0,1,1,1,0,0,1,0,1,0,1,0,0,0,0,1,1,1,0,0,0,0,},{0,0,0,0,0,1,0,0,0,0,0,0,1,1,1,0,0,0,0,1,0,0,0,1,0,0,1,1,0,1,0,1,0,1,0,1,0,0,0,0,1,1,1,0,1,1,0,1,0,0,0,1,0,0,0,1,1,1,0,1,0,1,1,0,},{0,0,0,0,0,0,1,0,0,0,0,0,0,1,1,1,0,0,0,0,1,0,0,0,0,0,0,1,1,0,1,1,0,0,1,0,1,0,1,0,0,1,1,1,0,0,0,0,1,0,0,0,0,0,1,0,1,0,1,1,0,1,1,1,},{0,0,0,0,0,0,0,1,0,0,0,0,0,0,1,1,0,0,0,0,0,1,0,1,0,0,0,0,1,1,1,0,0,0,0,1,0,0,0,1,0,0,1,1,0,1,0,1,0,1,0,1,0,1,0,0,1,1,1,0,0,0,1,1,},{1,1,0,0,0,1,1,1,0,0,1,0,1,0,1,0,1,0,1,0,1,1,0,0,1,0,0,0,1,0,0,0,0,1,1,1,0,0,0,0,1,0,1,0,0,0,0,0,1,1,0,0,0,0,0,0,1,0,0,0,0,0,0,0,},{1,1,1,0,1,1,0,1,0,1,0,0,0,0,0,1,0,0,0,0,1,1,1,0,0,1,0,1,0,1,0,0,1,1,0,1,1,0,0,0,0,0,0,1,0,0,0,0,1,1,1,0,0,0,0,0,0,1,0,0,0,0,0,0,},{0,1,1,0,1,0,1,1,1,0,0,0,1,0,0,0,1,0,1,1,0,1,1,1,0,0,0,0,1,0,1,0,1,0,1,0,1,1,0,0,1,0,0,0,1,0,0,0,0,1,1,1,0,0,0,0,0,0,1,0,0,0,0,0,},{0,0,0,0,1,1,1,0,0,0,0,1,0,1,0,1,0,0,1,1,1,0,1,1,0,1,0,0,0,1,0,1,1,1,0,1,0,1,1,0,0,1,0,0,0,1,0,0,0,0,1,1,1,0,0,0,0,0,0,1,0,0,0,0,},{0,1,1,1,0,0,0,0,1,0,1,0,1,0,0,0,1,1,0,1,1,1,0,0,1,0,1,0,0,0,1,0,0,1,1,0,1,0,1,1,0,0,1,0,0,0,1,0,0,0,0,1,1,1,0,0,0,0,0,0,1,0,0,0,},{1,1,0,1,0,1,1,0,0,0,0,1,0,0,0,1,1,1,1,0,1,1,0,1,0,1,0,1,0,0,0,0,0,0,1,1,0,1,0,1,0,0,0,1,0,0,0,1,0,0,0,0,1,1,1,0,0,0,0,0,0,1,0,0,},{1,0,1,1,0,1,1,1,1,0,0,0,0,0,1,0,0,1,1,1,0,0,0,0,0,0,1,0,1,0,1,0,0,0,0,1,1,0,1,1,0,0,0,0,1,0,0,0,0,0,0,0,0,1,1,1,0,0,0,0,0,0,1,0,},{1,1,1,0,0,0,1,1,0,1,0,1,0,1,0,0,0,0,1,1,0,1,0,1,0,0,0,1,0,0,0,1,0,0,0,0,1,1,1,0,0,0,0,0,0,1,0,1,0,0,0,0,0,0,1,1,0,0,0,0,0,0,0,1,},{1,0,1,0,1,0,1,0,1,0,1,0,1,0,1,1,0,0,0,0,0,0,1,0,1,0,1,0,1,1,0,0,1,0,1,0,0,0,0,0,0,0,0,1,1,1,0,0,0,0,0,0,1,0,1,0,0,0,0,0,0,1,1,1,},{0,0,0,0,0,0,0,1,0,0,0,0,0,0,1,1,0,0,0,0,0,1,0,1,0,0,0,0,1,1,1,0,0,0,0,1,0,0,0,0,0,0,1,1,0,1,1,0,0,0,0,1,0,0,0,1,0,0,0,0,1,1,0,1,},{1,0,1,0,1,0,0,0,1,0,1,0,1,1,0,0,0,0,0,0,1,0,1,0,1,0,1,1,0,1,1,1,1,0,0,0,1,0,0,0,0,1,1,0,1,0,1,1,0,0,1,0,0,0,0,0,0,0,0,1,1,0,1,1,},{0,0,0,0,0,1,0,1,0,0,0,0,1,1,0,1,0,0,0,1,0,1,0,0,0,0,1,1,1,0,1,1,0,1,0,0,0,1,0,0,1,1,0,1,0,1,0,1,0,1,0,0,0,0,0,1,0,0,1,1,0,1,1,0,},{1,0,1,0,0,0,0,0,1,0,1,1,0,0,0,0,0,0,1,0,1,0,0,0,1,1,0,1,1,1,0,0,0,0,1,0,0,0,1,0,1,0,1,0,1,0,1,1,1,0,0,0,0,0,1,0,0,1,1,0,1,1,0,0,},{0,0,0,1,0,1,0,1,0,0,1,1,0,1,0,1,0,1,0,1,0,0,0,0,1,1,1,0,1,1,0,1,0,0,0,1,0,0,0,1,1,1,0,1,0,1,1,0,0,0,0,0,0,1,0,0,1,1,0,1,1,0,0,0,},{1,0,0,0,0,0,0,0,1,1,0,0,0,0,0,0,1,0,1,0,0,0,0,0,0,1,1,1,0,0,0,0,0,0,0,0,1,0,0,0,0,1,1,0,1,1,0,0,1,0,0,0,1,0,0,0,1,0,1,1,0,0,0,0,},{0,1,0,1,0,1,0,1,1,1,0,1,0,1,0,1,0,1,0,0,0,0,0,0,0,0,1,1,0,1,0,1,0,0,0,0,0,1,0,1,0,0,1,1,1,0,0,0,0,1,0,1,0,0,0,0,1,1,1,0,0,0,0,0,},{0,1,1,0,1,1,0,0,1,0,0,0,0,0,1,0,1,0,1,0,1,0,1,1,0,0,1,0,1,0,1,0,1,1,0,0,0,0,0,0,0,0,0,0,1,0,1,0,1,1,0,1,1,0,1,1,1,0,0,0,1,0,1,0,},{1,1,1,0,1,1,1,0,0,1,0,0,0,1,0,1,0,0,0,0,0,0,1,1,0,1,0,0,0,0,0,1,1,1,1,0,0,0,0,0,0,0,0,1,0,0,0,1,1,1,0,1,1,0,1,1,0,1,0,1,0,0,0,1,},{1,1,0,0,0,1,1,1,0,0,1,0,1,0,1,0,1,0,1,0,1,1,0,0,1,0,0,0,1,0,0,0,0,1,1,1,0,0,0,0,0,0,1,0,0,0,0,0,0,0,0,0,0,0,0,0,0,0,0,0,0,0,0,0,},{0,0,0,0,0,0,1,1,0,0,0,0,0,1,0,0,0,0,0,0,1,1,0,1,0,0,0,1,0,1,0,1,0,0,1,1,1,0,0,0,0,1,0,0,0,0,0,1,1,1,0,1,1,0,1,1,0,1,0,1,0,0,0,1,},{1,1,0,0,0,0,0,0,0,0,1,0,0,0,0,0,1,0,1,1,0,0,0,0,1,0,1,0,1,0,0,0,0,0,0,1,1,1,0,0,1,0,0,0,0,0,1,0,1,1,0,1,1,0,1,1,1,0,0,0,1,0,1,0,},{1,1,1,0,0,0,1,1,0,1,0,1,0,1,0,0,0,0,1,1,0,1,0,1,0,0,0,1,0,0,0,1,0,0,0,0,1,1,1,0,0,0,0,0,0,1,0,0,0,0,0,0,0,0,0,0,0,0,0,0,0,0,0,0,},{0,1,1,1,0,1,1,1,1,0,1,0,0,0,1,0,1,1,0,0,0,0,0,0,1,0,0,0,0,0,1,0,0,0,0,0,0,1,1,1,1,0,0,0,1,0,0,0,1,1,0,1,1,0,1,1,1,0,0,0,1,0,1,0,},{0,0,1,1,0,1,1,0,0,1,0,0,0,0,0,1,1,1,0,1,0,1,0,1,0,1,0,1,0,1,0,0,0,0,0,0,0,0,1,1,0,1,0,1,0,0,0,0,1,1,0,1,1,0,1,1,0,1,0,1,0,0,0,1,},{0,0,1,0,1,0,0,0,0,1,1,0,1,1,0,0,1,0,1,0,1,0,1,0,1,1,0,0,0,1,1,1,1,0,0,0,0,0,0,0,0,0,0,0,0,1,1,1,1,0,0,0,1,0,1,0,1,1,0,1,1,1,0,0,},{0,1,0,0,0,1,0,0,1,1,1,0,1,1,1,0,0,0,0,0,0,0,0,1,1,1,1,0,1,1,0,1,0,1,0,0,0,0,0,0,0,0,0,0,1,1,0,1,0,1,0,1,0,0,0,1,1,1,0,1,0,1,1,0,},{1,0,0,0,0,0,1,0,1,1,0,0,0,1,1,1,1,0,1,0,1,0,0,0,0,1,1,0,1,0,1,1,0,0,1,0,0,0,0,0,0,0,0,1,1,0,1,1,0,0,0,0,0,0,0,0,0,0,0,1,1,0,1,1,},{0,0,0,0,0,0,0,1,0,0,0,0,0,0,1,1,0,0,0,0,0,1,0,1,0,0,0,0,1,1,1,0,0,0,0,1,0,0,0,0,0,0,1,1,0,1,1,0,0,1,0,1,0,0,0,1,1,1,1,0,1,1,0,1,},{1,0,0,0,0,0,0,0,1,1,0,0,0,0,0,0,1,0,1,0,0,0,0,0,0,1,1,1,0,0,0,0,0,0,0,0,1,0,0,0,0,1,1,0,1,1,0,0,1,0,0,0,1,0,1,0,1,0,1,1,0,1,1,1,},{0,1,0,0,0,0,0,1,1,1,1,0,0,0,1,1,0,0,0,1,0,1,0,1,1,1,0,1,0,1,1,0,0,0,0,0,0,1,0,0,1,1,0,1,1,0,0,0,0,0,0,0,0,0,0,0,1,1,0,1,1,0,0,0,},{0,0,1,0,0,0,1,0,0,1,1,1,0,1,1,1,1,0,0,0,0,0,0,0,1,0,1,1,0,1,1,1,0,0,0,0,0,0,1,0,1,0,1,1,0,0,0,0,1,0,0,0,1,0,1,0,0,1,1,0,1,0,1,1,},{0,0,0,1,0,1,0,0,0,0,1,1,0,1,1,0,0,1,0,1,0,1,0,1,1,1,1,0,0,0,1,1,0,0,0,0,0,0,0,1,1,1,1,0,0,0,0,0,0,1,0,1,0,0,0,1,0,0,1,1,1,0,1,1,}};
 2000cbc:	00808074 	movhi	r2,513
 2000cc0:	1092b804 	addi	r2,r2,19168
 2000cc4:	013ffff4 	movhi	r4,65535
 2000cc8:	211f7f04 	addi	r4,r4,32252
 2000ccc:	e107883a 	add	r3,fp,r4
 2000cd0:	100b883a 	mov	r5,r2
 2000cd4:	00900004 	movi	r2,16384
 2000cd8:	1809883a 	mov	r4,r3
 2000cdc:	100d883a 	mov	r6,r2
 2000ce0:	2003e380 	call	2003e38 <memcpy>

		  unsigned int classic;

		  printf("If you wish to play in classic mode, press c. If not, press any other key\n");
 2000ce4:	01008074 	movhi	r4,513
 2000ce8:	21127c04 	addi	r4,r4,18928
 2000cec:	20043100 	call	2004310 <puts>
		  while((c = IORD(PORT_TECLADO_BASE,0)) != 0b1111)
 2000cf0:	00001606 	br	2000d4c <main+0xae8>
		    {
			  if(c!=0b0011)
 2000cf4:	017ffff4 	movhi	r5,65535
 2000cf8:	295f7c04 	addi	r5,r5,32240
 2000cfc:	2f0b883a 	add	r5,r5,fp
 2000d00:	28800007 	ldb	r2,0(r5)
 2000d04:	108000e0 	cmpeqi	r2,r2,3
 2000d08:	1000101e 	bne	r2,zero,2000d4c <main+0xae8>
			  {
		      if(c==0b1011)
 2000d0c:	01bffff4 	movhi	r6,65535
 2000d10:	319f7c04 	addi	r6,r6,32240
 2000d14:	370d883a 	add	r6,r6,fp
 2000d18:	30800007 	ldb	r2,0(r6)
 2000d1c:	108002d8 	cmpnei	r2,r2,11
 2000d20:	1000061e 	bne	r2,zero,2000d3c <main+0xad8>
			{
			  classic = 1;
 2000d24:	00800044 	movi	r2,1
 2000d28:	00fffff4 	movhi	r3,65535
 2000d2c:	18df7004 	addi	r3,r3,32192
 2000d30:	1f07883a 	add	r3,r3,fp
 2000d34:	18800015 	stw	r2,0(r3)
 2000d38:	00000406 	br	2000d4c <main+0xae8>
			}
		      else
			{
			  classic = 0;
 2000d3c:	013ffff4 	movhi	r4,65535
 2000d40:	211f7004 	addi	r4,r4,32192
 2000d44:	2709883a 	add	r4,r4,fp
 2000d48:	20000015 	stw	zero,0(r4)
		  unsigned int inverse[64][64]={{1,1,0,1,1,1,0,0,1,0,0,0,1,0,1,0,0,0,0,0,0,1,1,1,1,0,0,0,0,0,0,0,1,1,0,0,0,1,1,1,1,0,1,0,1,0,1,0,0,1,1,0,1,1,0,0,0,0,1,0,1,0,0,0,},{1,1,0,1,0,1,1,0,0,1,0,1,0,0,0,1,0,0,0,0,1,1,0,1,0,1,0,0,0,0,0,0,1,1,1,0,1,1,0,1,0,0,0,0,0,0,0,1,1,1,1,0,1,1,1,0,0,1,0,0,0,1,0,0,},{0,0,0,1,1,0,1,1,0,0,0,0,0,0,0,0,0,0,0,1,1,0,1,1,0,0,1,0,0,0,0,0,0,1,1,0,1,0,1,1,1,0,1,0,1,0,0,0,1,1,0,0,0,1,1,1,1,0,0,0,0,0,1,0,},{1,1,1,0,1,1,0,1,0,1,0,1,0,0,0,1,0,0,1,1,0,1,1,0,0,0,0,1,0,0,0,0,0,0,0,0,1,1,1,0,0,0,0,0,0,1,0,1,0,0,0,0,0,0,1,1,0,0,0,0,0,0,0,1,},{1,0,1,1,0,1,1,1,1,0,0,0,1,0,1,0,0,1,1,0,1,1,0,0,0,0,0,0,1,0,0,0,0,1,1,1,0,0,0,0,1,0,1,0,0,0,0,0,1,1,0,0,0,0,0,0,1,0,0,0,0,0,0,0,},{1,1,0,1,1,0,0,0,0,0,0,0,0,0,0,0,1,1,0,1,1,0,0,0,0,0,0,0,0,1,0,0,1,1,0,1,0,1,1,0,0,0,0,1,0,1,0,1,1,1,1,0,0,0,1,1,0,1,0,0,0,0,0,1,},{0,1,1,0,1,0,1,1,1,0,0,0,1,0,1,0,1,0,1,1,0,0,0,0,0,0,0,0,0,0,1,0,1,0,1,1,0,1,1,1,1,0,0,0,0,0,0,0,0,1,1,1,0,1,1,1,0,0,1,0,0,0,1,0,},{0,0,1,1,1,0,1,1,0,1,0,1,0,0,0,1,1,1,1,0,0,0,0,0,0,0,0,0,0,0,0,1,1,1,1,0,0,0,1,1,0,1,0,1,0,1,0,1,0,0,1,1,0,1,1,0,0,0,0,1,0,1,0,0,},{1,0,0,0,1,0,1,0,1,1,0,1,1,0,1,1,0,0,0,0,1,0,1,0,1,1,0,0,0,0,0,0,0,0,1,0,1,0,1,0,1,0,1,0,1,0,1,1,1,0,0,0,0,0,1,0,0,1,1,0,1,1,0,0,},{0,1,0,1,0,0,0,1,1,1,0,1,1,0,1,1,0,0,0,1,0,0,0,1,1,1,1,0,0,0,0,0,0,1,0,0,0,0,0,1,0,0,0,0,0,0,1,1,0,1,0,0,0,1,0,1,1,1,1,0,1,1,1,0,},{0,0,0,0,0,0,0,0,0,0,0,0,0,0,0,0,0,0,1,0,0,0,0,0,0,1,1,1,0,0,0,0,1,0,0,0,1,0,0,0,1,0,1,0,1,1,0,0,0,0,1,0,1,0,1,0,1,1,0,0,0,1,1,1,},{0,1,0,1,0,0,0,1,1,1,0,1,1,0,1,1,0,1,0,0,0,0,0,1,0,0,1,1,1,0,0,0,0,0,0,1,0,1,0,1,0,0,0,0,1,1,0,1,0,0,0,0,0,1,0,0,0,0,0,0,0,0,1,1,},{1,0,0,0,1,0,1,0,1,1,0,1,1,0,1,1,1,0,0,0,0,0,1,0,0,0,0,1,1,1,0,0,1,0,1,0,1,0,0,0,1,0,1,1,0,0,0,0,0,0,1,0,0,0,0,0,1,1,0,0,0,0,0,0,},{0,0,0,0,0,0,0,0,0,0,0,0,0,0,0,0,0,0,0,0,0,1,0,0,0,0,0,0,1,1,1,0,0,0,0,1,0,0,0,1,0,0,1,1,0,1,0,1,0,1,0,1,0,1,0,0,1,1,1,0,0,0,1,1,},{1,0,0,0,1,0,1,0,1,1,0,1,1,0,1,1,1,0,0,0,1,0,0,0,0,0,0,0,0,1,1,1,1,0,0,0,0,0,1,0,1,1,0,0,0,0,0,0,1,0,1,0,0,0,1,0,0,1,1,1,0,1,1,1,},{0,1,0,1,0,0,0,1,1,1,0,1,1,0,1,1,0,1,0,1,0,0,0,0,0,0,0,0,0,0,1,1,0,1,0,1,0,1,0,0,1,1,0,1,0,1,0,1,0,1,0,0,0,0,0,1,0,0,1,1,0,1,1,0,},{0,0,0,0,0,1,1,1,0,0,0,0,1,0,1,0,0,0,0,1,1,1,0,0,1,0,1,0,0,0,0,0,1,0,1,0,1,1,0,0,0,0,0,0,0,0,1,0,1,0,1,0,1,0,1,1,1,0,1,0,1,0,1,0,},{0,0,0,0,1,1,0,1,0,0,0,1,0,0,0,1,0,0,1,1,0,1,1,0,0,0,0,1,0,0,0,0,0,0,0,0,1,1,1,0,0,0,0,0,0,1,0,1,0,0,0,0,0,0,1,1,0,0,0,0,0,0,0,1,},{0,0,0,1,1,0,1,1,0,0,1,0,0,0,0,0,0,1,1,0,1,0,1,1,1,0,0,0,1,0,0,0,1,0,1,1,0,1,1,1,0,0,0,0,1,0,1,0,1,0,1,0,1,1,0,0,1,0,1,0,1,0,0,0,},{0,0,1,1,0,1,1,0,0,1,0,0,0,0,0,1,1,1,0,1,0,1,0,1,0,1,0,0,0,1,0,0,0,0,1,1,1,0,1,1,0,0,0,1,0,1,0,0,0,0,0,0,1,1,0,1,0,0,0,0,0,1,0,1,},{0,1,1,0,1,1,0,0,1,0,0,0,0,0,1,0,1,0,1,0,1,0,1,1,0,0,1,0,0,0,1,0,1,1,0,1,1,1,0,0,0,0,1,0,1,0,0,0,1,0,1,1,0,0,0,0,1,0,1,0,0,0,0,0,},{1,1,0,1,1,0,0,0,0,0,0,0,0,1,0,0,1,1,0,1,0,1,1,0,0,0,0,1,0,0,0,1,1,1,1,0,1,1,0,1,0,1,0,1,0,0,0,0,0,0,1,1,0,1,0,1,0,0,0,1,0,1,0,1,},{1,0,1,1,0,0,0,0,1,0,0,0,1,0,0,0,0,1,1,0,1,1,0,0,0,0,0,0,1,0,0,0,0,1,1,1,0,0,0,0,1,0,1,0,0,0,0,0,1,1,0,0,0,0,0,0,1,0,0,0,0,0,0,0,},{1,1,1,0,0,0,0,0,0,1,0,1,0,0,0,0,0,0,1,1,1,0,0,0,0,0,0,0,0,1,0,1,0,0,1,1,0,1,0,1,0,1,0,0,0,0,0,0,1,1,0,1,0,1,0,1,0,1,0,1,0,1,0,1,},{1,0,0,0,0,0,0,0,1,1,0,0,0,0,0,0,1,0,1,0,0,0,0,0,0,1,1,1,0,0,0,0,1,0,0,0,1,0,0,0,1,0,1,0,1,1,0,0,0,0,1,0,1,0,1,0,1,1,0,0,0,1,1,1,},{0,1,0,0,0,0,0,0,1,1,1,0,0,0,0,0,0,0,0,1,0,0,0,0,1,1,0,1,1,0,0,0,0,1,0,1,0,1,0,0,0,0,0,0,1,1,1,0,0,1,0,0,0,0,0,1,1,1,1,0,1,1,0,1,},{0,0,1,0,0,0,0,0,0,1,1,1,0,0,0,0,1,0,0,0,1,0,0,0,1,0,1,0,1,1,0,0,0,0,0,0,1,0,1,0,1,0,1,1,0,1,1,1,1,0,0,0,1,0,0,0,0,1,1,0,1,0,1,1,},{0,0,0,1,0,0,0,0,0,0,1,1,1,0,0,0,0,1,0,0,0,1,0,0,1,1,0,1,0,1,1,0,0,1,0,0,0,1,0,1,0,0,1,1,1,0,1,1,0,0,0,1,0,1,0,1,0,0,0,0,1,1,1,0,},{0,0,0,0,1,0,0,0,0,0,0,1,1,1,0,0,0,0,1,0,0,0,1,0,0,1,1,0,1,0,1,1,1,0,1,0,0,0,1,0,1,1,0,1,1,1,0,0,1,0,1,0,1,0,0,0,0,1,1,1,0,0,0,0,},{0,0,0,0,0,1,0,0,0,0,0,0,1,1,1,0,0,0,0,1,0,0,0,1,0,0,1,1,0,1,0,1,0,1,0,1,0,0,0,0,1,1,1,0,1,1,0,1,0,0,0,1,0,0,0,1,1,1,0,1,0,1,1,0,},{0,0,0,0,0,0,1,0,0,0,0,0,0,1,1,1,0,0,0,0,1,0,0,0,0,0,0,1,1,0,1,1,0,0,1,0,1,0,1,0,0,1,1,1,0,0,0,0,1,0,0,0,0,0,1,0,1,0,1,1,0,1,1,1,},{0,0,0,0,0,0,0,1,0,0,0,0,0,0,1,1,0,0,0,0,0,1,0,1,0,0,0,0,1,1,1,0,0,0,0,1,0,0,0,1,0,0,1,1,0,1,0,1,0,1,0,1,0,1,0,0,1,1,1,0,0,0,1,1,},{1,1,0,0,0,1,1,1,0,0,1,0,1,0,1,0,1,0,1,0,1,1,0,0,1,0,0,0,1,0,0,0,0,1,1,1,0,0,0,0,1,0,1,0,0,0,0,0,1,1,0,0,0,0,0,0,1,0,0,0,0,0,0,0,},{1,1,1,0,1,1,0,1,0,1,0,0,0,0,0,1,0,0,0,0,1,1,1,0,0,1,0,1,0,1,0,0,1,1,0,1,1,0,0,0,0,0,0,1,0,0,0,0,1,1,1,0,0,0,0,0,0,1,0,0,0,0,0,0,},{0,1,1,0,1,0,1,1,1,0,0,0,1,0,0,0,1,0,1,1,0,1,1,1,0,0,0,0,1,0,1,0,1,0,1,0,1,1,0,0,1,0,0,0,1,0,0,0,0,1,1,1,0,0,0,0,0,0,1,0,0,0,0,0,},{0,0,0,0,1,1,1,0,0,0,0,1,0,1,0,1,0,0,1,1,1,0,1,1,0,1,0,0,0,1,0,1,1,1,0,1,0,1,1,0,0,1,0,0,0,1,0,0,0,0,1,1,1,0,0,0,0,0,0,1,0,0,0,0,},{0,1,1,1,0,0,0,0,1,0,1,0,1,0,0,0,1,1,0,1,1,1,0,0,1,0,1,0,0,0,1,0,0,1,1,0,1,0,1,1,0,0,1,0,0,0,1,0,0,0,0,1,1,1,0,0,0,0,0,0,1,0,0,0,},{1,1,0,1,0,1,1,0,0,0,0,1,0,0,0,1,1,1,1,0,1,1,0,1,0,1,0,1,0,0,0,0,0,0,1,1,0,1,0,1,0,0,0,1,0,0,0,1,0,0,0,0,1,1,1,0,0,0,0,0,0,1,0,0,},{1,0,1,1,0,1,1,1,1,0,0,0,0,0,1,0,0,1,1,1,0,0,0,0,0,0,1,0,1,0,1,0,0,0,0,1,1,0,1,1,0,0,0,0,1,0,0,0,0,0,0,0,0,1,1,1,0,0,0,0,0,0,1,0,},{1,1,1,0,0,0,1,1,0,1,0,1,0,1,0,0,0,0,1,1,0,1,0,1,0,0,0,1,0,0,0,1,0,0,0,0,1,1,1,0,0,0,0,0,0,1,0,1,0,0,0,0,0,0,1,1,0,0,0,0,0,0,0,1,},{1,0,1,0,1,0,1,0,1,0,1,0,1,0,1,1,0,0,0,0,0,0,1,0,1,0,1,0,1,1,0,0,1,0,1,0,0,0,0,0,0,0,0,1,1,1,0,0,0,0,0,0,1,0,1,0,0,0,0,0,0,1,1,1,},{0,0,0,0,0,0,0,1,0,0,0,0,0,0,1,1,0,0,0,0,0,1,0,1,0,0,0,0,1,1,1,0,0,0,0,1,0,0,0,0,0,0,1,1,0,1,1,0,0,0,0,1,0,0,0,1,0,0,0,0,1,1,0,1,},{1,0,1,0,1,0,0,0,1,0,1,0,1,1,0,0,0,0,0,0,1,0,1,0,1,0,1,1,0,1,1,1,1,0,0,0,1,0,0,0,0,1,1,0,1,0,1,1,0,0,1,0,0,0,0,0,0,0,0,1,1,0,1,1,},{0,0,0,0,0,1,0,1,0,0,0,0,1,1,0,1,0,0,0,1,0,1,0,0,0,0,1,1,1,0,1,1,0,1,0,0,0,1,0,0,1,1,0,1,0,1,0,1,0,1,0,0,0,0,0,1,0,0,1,1,0,1,1,0,},{1,0,1,0,0,0,0,0,1,0,1,1,0,0,0,0,0,0,1,0,1,0,0,0,1,1,0,1,1,1,0,0,0,0,1,0,0,0,1,0,1,0,1,0,1,0,1,1,1,0,0,0,0,0,1,0,0,1,1,0,1,1,0,0,},{0,0,0,1,0,1,0,1,0,0,1,1,0,1,0,1,0,1,0,1,0,0,0,0,1,1,1,0,1,1,0,1,0,0,0,1,0,0,0,1,1,1,0,1,0,1,1,0,0,0,0,0,0,1,0,0,1,1,0,1,1,0,0,0,},{1,0,0,0,0,0,0,0,1,1,0,0,0,0,0,0,1,0,1,0,0,0,0,0,0,1,1,1,0,0,0,0,0,0,0,0,1,0,0,0,0,1,1,0,1,1,0,0,1,0,0,0,1,0,0,0,1,0,1,1,0,0,0,0,},{0,1,0,1,0,1,0,1,1,1,0,1,0,1,0,1,0,1,0,0,0,0,0,0,0,0,1,1,0,1,0,1,0,0,0,0,0,1,0,1,0,0,1,1,1,0,0,0,0,1,0,1,0,0,0,0,1,1,1,0,0,0,0,0,},{0,1,1,0,1,1,0,0,1,0,0,0,0,0,1,0,1,0,1,0,1,0,1,1,0,0,1,0,1,0,1,0,1,1,0,0,0,0,0,0,0,0,0,0,1,0,1,0,1,1,0,1,1,0,1,1,1,0,0,0,1,0,1,0,},{1,1,1,0,1,1,1,0,0,1,0,0,0,1,0,1,0,0,0,0,0,0,1,1,0,1,0,0,0,0,0,1,1,1,1,0,0,0,0,0,0,0,0,1,0,0,0,1,1,1,0,1,1,0,1,1,0,1,0,1,0,0,0,1,},{1,1,0,0,0,1,1,1,0,0,1,0,1,0,1,0,1,0,1,0,1,1,0,0,1,0,0,0,1,0,0,0,0,1,1,1,0,0,0,0,0,0,1,0,0,0,0,0,0,0,0,0,0,0,0,0,0,0,0,0,0,0,0,0,},{0,0,0,0,0,0,1,1,0,0,0,0,0,1,0,0,0,0,0,0,1,1,0,1,0,0,0,1,0,1,0,1,0,0,1,1,1,0,0,0,0,1,0,0,0,0,0,1,1,1,0,1,1,0,1,1,0,1,0,1,0,0,0,1,},{1,1,0,0,0,0,0,0,0,0,1,0,0,0,0,0,1,0,1,1,0,0,0,0,1,0,1,0,1,0,0,0,0,0,0,1,1,1,0,0,1,0,0,0,0,0,1,0,1,1,0,1,1,0,1,1,1,0,0,0,1,0,1,0,},{1,1,1,0,0,0,1,1,0,1,0,1,0,1,0,0,0,0,1,1,0,1,0,1,0,0,0,1,0,0,0,1,0,0,0,0,1,1,1,0,0,0,0,0,0,1,0,0,0,0,0,0,0,0,0,0,0,0,0,0,0,0,0,0,},{0,1,1,1,0,1,1,1,1,0,1,0,0,0,1,0,1,1,0,0,0,0,0,0,1,0,0,0,0,0,1,0,0,0,0,0,0,1,1,1,1,0,0,0,1,0,0,0,1,1,0,1,1,0,1,1,1,0,0,0,1,0,1,0,},{0,0,1,1,0,1,1,0,0,1,0,0,0,0,0,1,1,1,0,1,0,1,0,1,0,1,0,1,0,1,0,0,0,0,0,0,0,0,1,1,0,1,0,1,0,0,0,0,1,1,0,1,1,0,1,1,0,1,0,1,0,0,0,1,},{0,0,1,0,1,0,0,0,0,1,1,0,1,1,0,0,1,0,1,0,1,0,1,0,1,1,0,0,0,1,1,1,1,0,0,0,0,0,0,0,0,0,0,0,0,1,1,1,1,0,0,0,1,0,1,0,1,1,0,1,1,1,0,0,},{0,1,0,0,0,1,0,0,1,1,1,0,1,1,1,0,0,0,0,0,0,0,0,1,1,1,1,0,1,1,0,1,0,1,0,0,0,0,0,0,0,0,0,0,1,1,0,1,0,1,0,1,0,0,0,1,1,1,0,1,0,1,1,0,},{1,0,0,0,0,0,1,0,1,1,0,0,0,1,1,1,1,0,1,0,1,0,0,0,0,1,1,0,1,0,1,1,0,0,1,0,0,0,0,0,0,0,0,1,1,0,1,1,0,0,0,0,0,0,0,0,0,0,0,1,1,0,1,1,},{0,0,0,0,0,0,0,1,0,0,0,0,0,0,1,1,0,0,0,0,0,1,0,1,0,0,0,0,1,1,1,0,0,0,0,1,0,0,0,0,0,0,1,1,0,1,1,0,0,1,0,1,0,0,0,1,1,1,1,0,1,1,0,1,},{1,0,0,0,0,0,0,0,1,1,0,0,0,0,0,0,1,0,1,0,0,0,0,0,0,1,1,1,0,0,0,0,0,0,0,0,1,0,0,0,0,1,1,0,1,1,0,0,1,0,0,0,1,0,1,0,1,0,1,1,0,1,1,1,},{0,1,0,0,0,0,0,1,1,1,1,0,0,0,1,1,0,0,0,1,0,1,0,1,1,1,0,1,0,1,1,0,0,0,0,0,0,1,0,0,1,1,0,1,1,0,0,0,0,0,0,0,0,0,0,0,1,1,0,1,1,0,0,0,},{0,0,1,0,0,0,1,0,0,1,1,1,0,1,1,1,1,0,0,0,0,0,0,0,1,0,1,1,0,1,1,1,0,0,0,0,0,0,1,0,1,0,1,1,0,0,0,0,1,0,0,0,1,0,1,0,0,1,1,0,1,0,1,1,},{0,0,0,1,0,1,0,0,0,0,1,1,0,1,1,0,0,1,0,1,0,1,0,1,1,1,1,0,0,0,1,1,0,0,0,0,0,0,0,1,1,1,1,0,0,0,0,0,0,1,0,1,0,0,0,1,0,0,1,1,1,0,1,1,}};

		  unsigned int classic;

		  printf("If you wish to play in classic mode, press c. If not, press any other key\n");
		  while((c = IORD(PORT_TECLADO_BASE,0)) != 0b1111)
 2000d4c:	00810034 	movhi	r2,1024
 2000d50:	10880804 	addi	r2,r2,8224
 2000d54:	10800037 	ldwio	r2,0(r2)
 2000d58:	017ffff4 	movhi	r5,65535
 2000d5c:	295f7c04 	addi	r5,r5,32240
 2000d60:	2f0b883a 	add	r5,r5,fp
 2000d64:	28800005 	stb	r2,0(r5)
 2000d68:	01bffff4 	movhi	r6,65535
 2000d6c:	319f7c04 	addi	r6,r6,32240
 2000d70:	370d883a 	add	r6,r6,fp
 2000d74:	30800007 	ldb	r2,0(r6)
 2000d78:	108003d8 	cmpnei	r2,r2,15
 2000d7c:	103fdd1e 	bne	r2,zero,2000cf4 <main+0xa90>
			  classic = 0;
			}
			  }
		    }

		  while((c = IORD(PORT_TECLADO_BASE,0)) != 0b0011)
 2000d80:	0001883a 	nop
 2000d84:	00810034 	movhi	r2,1024
 2000d88:	10880804 	addi	r2,r2,8224
 2000d8c:	10800037 	ldwio	r2,0(r2)
 2000d90:	00fffff4 	movhi	r3,65535
 2000d94:	18df7c04 	addi	r3,r3,32240
 2000d98:	1f07883a 	add	r3,r3,fp
 2000d9c:	18800005 	stb	r2,0(r3)
 2000da0:	013ffff4 	movhi	r4,65535
 2000da4:	211f7c04 	addi	r4,r4,32240
 2000da8:	2709883a 	add	r4,r4,fp
 2000dac:	20800007 	ldb	r2,0(r4)
 2000db0:	108000d8 	cmpnei	r2,r2,3
 2000db4:	103ff31e 	bne	r2,zero,2000d84 <main+0xb20>
		  {
		  }

		  if(classic==0)
 2000db8:	017ffff4 	movhi	r5,65535
 2000dbc:	295f7004 	addi	r5,r5,32192
 2000dc0:	2f0b883a 	add	r5,r5,fp
 2000dc4:	28800017 	ldw	r2,0(r5)
 2000dc8:	10075a1e 	bne	r2,zero,2002b34 <main+0x28d0>
		    {
		      unsigned int pattern[64];
		      unsigned int solution[64];
		      time_t t;
		      srand((unsigned) time(&t));
 2000dcc:	01bffff4 	movhi	r6,65535
 2000dd0:	319f7d04 	addi	r6,r6,32244
 2000dd4:	e185883a 	add	r2,fp,r6
 2000dd8:	1009883a 	mov	r4,r2
 2000ddc:	20044380 	call	2004438 <time>
 2000de0:	1009883a 	mov	r4,r2
 2000de4:	20043240 	call	2004324 <srand>
		      for(i=0;i<64;i++)
 2000de8:	d0201315 	stw	zero,-32692(gp)
 2000dec:	00001806 	br	2000e50 <main+0xbec>
			{
			  pattern[i]=rand() % 2;
 2000df0:	d4201317 	ldw	r16,-32692(gp)
 2000df4:	200433c0 	call	200433c <rand>
 2000df8:	1007883a 	mov	r3,r2
 2000dfc:	00a00034 	movhi	r2,32768
 2000e00:	10800044 	addi	r2,r2,1
 2000e04:	1884703a 	and	r2,r3,r2
 2000e08:	1000040e 	bge	r2,zero,2000e1c <main+0xbb8>
 2000e0c:	10bfffc4 	addi	r2,r2,-1
 2000e10:	00ffff84 	movi	r3,-2
 2000e14:	10c4b03a 	or	r2,r2,r3
 2000e18:	10800044 	addi	r2,r2,1
 2000e1c:	1009883a 	mov	r4,r2
 2000e20:	00a04f14 	movui	r2,33084
 2000e24:	017ffff4 	movhi	r5,65535
 2000e28:	295f7004 	addi	r5,r5,32192
 2000e2c:	2f0b883a 	add	r5,r5,fp
 2000e30:	2887883a 	add	r3,r5,r2
 2000e34:	8405883a 	add	r2,r16,r16
 2000e38:	1085883a 	add	r2,r2,r2
 2000e3c:	1885883a 	add	r2,r3,r2
 2000e40:	11000015 	stw	r4,0(r2)
		    {
		      unsigned int pattern[64];
		      unsigned int solution[64];
		      time_t t;
		      srand((unsigned) time(&t));
		      for(i=0;i<64;i++)
 2000e44:	d0a01317 	ldw	r2,-32692(gp)
 2000e48:	10800044 	addi	r2,r2,1
 2000e4c:	d0a01315 	stw	r2,-32692(gp)
 2000e50:	d0a01317 	ldw	r2,-32692(gp)
 2000e54:	10801010 	cmplti	r2,r2,64
 2000e58:	103fe51e 	bne	r2,zero,2000df0 <main+0xb8c>
			{
			  pattern[i]=rand() % 2;
			  //pattern[i]=1;
			}

		      for(i=0;i<64;i++)
 2000e5c:	d0201315 	stw	zero,-32692(gp)
 2000e60:	00001106 	br	2000ea8 <main+0xc44>
			{
			      printf("\n%u",pattern[i]);
 2000e64:	d0a01317 	ldw	r2,-32692(gp)
 2000e68:	00e04f14 	movui	r3,33084
 2000e6c:	01bffff4 	movhi	r6,65535
 2000e70:	319f7004 	addi	r6,r6,32192
 2000e74:	370d883a 	add	r6,r6,fp
 2000e78:	30c7883a 	add	r3,r6,r3
 2000e7c:	1085883a 	add	r2,r2,r2
 2000e80:	1085883a 	add	r2,r2,r2
 2000e84:	1885883a 	add	r2,r3,r2
 2000e88:	10800017 	ldw	r2,0(r2)
 2000e8c:	01008074 	movhi	r4,513
 2000e90:	21128f04 	addi	r4,r4,19004
 2000e94:	100b883a 	mov	r5,r2
 2000e98:	20040c00 	call	20040c0 <printf>
			{
			  pattern[i]=rand() % 2;
			  //pattern[i]=1;
			}

		      for(i=0;i<64;i++)
 2000e9c:	d0a01317 	ldw	r2,-32692(gp)
 2000ea0:	10800044 	addi	r2,r2,1
 2000ea4:	d0a01315 	stw	r2,-32692(gp)
 2000ea8:	d0a01317 	ldw	r2,-32692(gp)
 2000eac:	10801010 	cmplti	r2,r2,64
 2000eb0:	103fec1e 	bne	r2,zero,2000e64 <main+0xc00>
			{
			      printf("\n%u",pattern[i]);
			      //matriz[i/8]=(((((((((((pattern[i/8]<<1) | pattern[i/8 +2])<<1) | pattern[i/8 +3])<<1) | pattern[i/8 +4])<<1) | pattern[i/8 +5])<<1) | pattern[i/8 +6])<<1) | pattern[i/8+7];
			 }
		      for(i=0;i<8;i++)
 2000eb4:	d0201315 	stw	zero,-32692(gp)
 2000eb8:	0000bd06 	br	20011b0 <main+0xf4c>
		      	{
		      	  matriz[i]=(pattern[8*i]<<1)|pattern[8*i+1];
 2000ebc:	d0e01317 	ldw	r3,-32692(gp)
 2000ec0:	d0a01317 	ldw	r2,-32692(gp)
 2000ec4:	100490fa 	slli	r2,r2,3
 2000ec8:	01204f14 	movui	r4,33084
 2000ecc:	017ffff4 	movhi	r5,65535
 2000ed0:	295f7004 	addi	r5,r5,32192
 2000ed4:	2f0b883a 	add	r5,r5,fp
 2000ed8:	2909883a 	add	r4,r5,r4
 2000edc:	1085883a 	add	r2,r2,r2
 2000ee0:	1085883a 	add	r2,r2,r2
 2000ee4:	2085883a 	add	r2,r4,r2
 2000ee8:	10800017 	ldw	r2,0(r2)
 2000eec:	1085883a 	add	r2,r2,r2
 2000ef0:	100b883a 	mov	r5,r2
 2000ef4:	d0a01317 	ldw	r2,-32692(gp)
 2000ef8:	100490fa 	slli	r2,r2,3
 2000efc:	10800044 	addi	r2,r2,1
 2000f00:	01204f14 	movui	r4,33084
 2000f04:	01bffff4 	movhi	r6,65535
 2000f08:	319f7004 	addi	r6,r6,32192
 2000f0c:	370d883a 	add	r6,r6,fp
 2000f10:	3109883a 	add	r4,r6,r4
 2000f14:	1085883a 	add	r2,r2,r2
 2000f18:	1085883a 	add	r2,r2,r2
 2000f1c:	2085883a 	add	r2,r4,r2
 2000f20:	10800017 	ldw	r2,0(r2)
 2000f24:	2884b03a 	or	r2,r5,r2
 2000f28:	1009883a 	mov	r4,r2
 2000f2c:	d0a01404 	addi	r2,gp,-32688
 2000f30:	1885883a 	add	r2,r3,r2
 2000f34:	11000005 	stb	r4,0(r2)
		      	  matriz[i]=(matriz[i]<<1)|pattern[8*i+2];
 2000f38:	d0e01317 	ldw	r3,-32692(gp)
 2000f3c:	d1201317 	ldw	r4,-32692(gp)
 2000f40:	d0a01404 	addi	r2,gp,-32688
 2000f44:	2085883a 	add	r2,r4,r2
 2000f48:	10800003 	ldbu	r2,0(r2)
 2000f4c:	1085883a 	add	r2,r2,r2
 2000f50:	100b883a 	mov	r5,r2
 2000f54:	d0a01317 	ldw	r2,-32692(gp)
 2000f58:	100490fa 	slli	r2,r2,3
 2000f5c:	10800084 	addi	r2,r2,2
 2000f60:	01204f14 	movui	r4,33084
 2000f64:	01bffff4 	movhi	r6,65535
 2000f68:	319f7004 	addi	r6,r6,32192
 2000f6c:	370d883a 	add	r6,r6,fp
 2000f70:	3109883a 	add	r4,r6,r4
 2000f74:	1085883a 	add	r2,r2,r2
 2000f78:	1085883a 	add	r2,r2,r2
 2000f7c:	2085883a 	add	r2,r4,r2
 2000f80:	10800017 	ldw	r2,0(r2)
 2000f84:	2884b03a 	or	r2,r5,r2
 2000f88:	1009883a 	mov	r4,r2
 2000f8c:	d0a01404 	addi	r2,gp,-32688
 2000f90:	1885883a 	add	r2,r3,r2
 2000f94:	11000005 	stb	r4,0(r2)
		      	  matriz[i]=(matriz[i]<<1)|pattern[8*i+3];
 2000f98:	d0e01317 	ldw	r3,-32692(gp)
 2000f9c:	d1201317 	ldw	r4,-32692(gp)
 2000fa0:	d0a01404 	addi	r2,gp,-32688
 2000fa4:	2085883a 	add	r2,r4,r2
 2000fa8:	10800003 	ldbu	r2,0(r2)
 2000fac:	1085883a 	add	r2,r2,r2
 2000fb0:	100b883a 	mov	r5,r2
 2000fb4:	d0a01317 	ldw	r2,-32692(gp)
 2000fb8:	100490fa 	slli	r2,r2,3
 2000fbc:	108000c4 	addi	r2,r2,3
 2000fc0:	01204f14 	movui	r4,33084
 2000fc4:	01bffff4 	movhi	r6,65535
 2000fc8:	319f7004 	addi	r6,r6,32192
 2000fcc:	370d883a 	add	r6,r6,fp
 2000fd0:	3109883a 	add	r4,r6,r4
 2000fd4:	1085883a 	add	r2,r2,r2
 2000fd8:	1085883a 	add	r2,r2,r2
 2000fdc:	2085883a 	add	r2,r4,r2
 2000fe0:	10800017 	ldw	r2,0(r2)
 2000fe4:	2884b03a 	or	r2,r5,r2
 2000fe8:	1009883a 	mov	r4,r2
 2000fec:	d0a01404 	addi	r2,gp,-32688
 2000ff0:	1885883a 	add	r2,r3,r2
 2000ff4:	11000005 	stb	r4,0(r2)
		      	  matriz[i]=(matriz[i]<<1)|pattern[8*i+4];
 2000ff8:	d0e01317 	ldw	r3,-32692(gp)
 2000ffc:	d1201317 	ldw	r4,-32692(gp)
 2001000:	d0a01404 	addi	r2,gp,-32688
 2001004:	2085883a 	add	r2,r4,r2
 2001008:	10800003 	ldbu	r2,0(r2)
 200100c:	1085883a 	add	r2,r2,r2
 2001010:	100b883a 	mov	r5,r2
 2001014:	d0a01317 	ldw	r2,-32692(gp)
 2001018:	100490fa 	slli	r2,r2,3
 200101c:	10800104 	addi	r2,r2,4
 2001020:	01204f14 	movui	r4,33084
 2001024:	01bffff4 	movhi	r6,65535
 2001028:	319f7004 	addi	r6,r6,32192
 200102c:	370d883a 	add	r6,r6,fp
 2001030:	3109883a 	add	r4,r6,r4
 2001034:	1085883a 	add	r2,r2,r2
 2001038:	1085883a 	add	r2,r2,r2
 200103c:	2085883a 	add	r2,r4,r2
 2001040:	10800017 	ldw	r2,0(r2)
 2001044:	2884b03a 	or	r2,r5,r2
 2001048:	1009883a 	mov	r4,r2
 200104c:	d0a01404 	addi	r2,gp,-32688
 2001050:	1885883a 	add	r2,r3,r2
 2001054:	11000005 	stb	r4,0(r2)
		      	  matriz[i]=(matriz[i]<<1)|pattern[8*i+5];
 2001058:	d0e01317 	ldw	r3,-32692(gp)
 200105c:	d1201317 	ldw	r4,-32692(gp)
 2001060:	d0a01404 	addi	r2,gp,-32688
 2001064:	2085883a 	add	r2,r4,r2
 2001068:	10800003 	ldbu	r2,0(r2)
 200106c:	1085883a 	add	r2,r2,r2
 2001070:	100b883a 	mov	r5,r2
 2001074:	d0a01317 	ldw	r2,-32692(gp)
 2001078:	100490fa 	slli	r2,r2,3
 200107c:	10800144 	addi	r2,r2,5
 2001080:	01204f14 	movui	r4,33084
 2001084:	01bffff4 	movhi	r6,65535
 2001088:	319f7004 	addi	r6,r6,32192
 200108c:	370d883a 	add	r6,r6,fp
 2001090:	3109883a 	add	r4,r6,r4
 2001094:	1085883a 	add	r2,r2,r2
 2001098:	1085883a 	add	r2,r2,r2
 200109c:	2085883a 	add	r2,r4,r2
 20010a0:	10800017 	ldw	r2,0(r2)
 20010a4:	2884b03a 	or	r2,r5,r2
 20010a8:	1009883a 	mov	r4,r2
 20010ac:	d0a01404 	addi	r2,gp,-32688
 20010b0:	1885883a 	add	r2,r3,r2
 20010b4:	11000005 	stb	r4,0(r2)
		      	  matriz[i]=(matriz[i]<<1)|pattern[8*i+6];
 20010b8:	d0e01317 	ldw	r3,-32692(gp)
 20010bc:	d1201317 	ldw	r4,-32692(gp)
 20010c0:	d0a01404 	addi	r2,gp,-32688
 20010c4:	2085883a 	add	r2,r4,r2
 20010c8:	10800003 	ldbu	r2,0(r2)
 20010cc:	1085883a 	add	r2,r2,r2
 20010d0:	100b883a 	mov	r5,r2
 20010d4:	d0a01317 	ldw	r2,-32692(gp)
 20010d8:	100490fa 	slli	r2,r2,3
 20010dc:	10800184 	addi	r2,r2,6
 20010e0:	01204f14 	movui	r4,33084
 20010e4:	01bffff4 	movhi	r6,65535
 20010e8:	319f7004 	addi	r6,r6,32192
 20010ec:	370d883a 	add	r6,r6,fp
 20010f0:	3109883a 	add	r4,r6,r4
 20010f4:	1085883a 	add	r2,r2,r2
 20010f8:	1085883a 	add	r2,r2,r2
 20010fc:	2085883a 	add	r2,r4,r2
 2001100:	10800017 	ldw	r2,0(r2)
 2001104:	2884b03a 	or	r2,r5,r2
 2001108:	1009883a 	mov	r4,r2
 200110c:	d0a01404 	addi	r2,gp,-32688
 2001110:	1885883a 	add	r2,r3,r2
 2001114:	11000005 	stb	r4,0(r2)
		      	  matriz[i]=(matriz[i]<<1)|pattern[8*i+7];
 2001118:	d0e01317 	ldw	r3,-32692(gp)
 200111c:	d1201317 	ldw	r4,-32692(gp)
 2001120:	d0a01404 	addi	r2,gp,-32688
 2001124:	2085883a 	add	r2,r4,r2
 2001128:	10800003 	ldbu	r2,0(r2)
 200112c:	1085883a 	add	r2,r2,r2
 2001130:	100b883a 	mov	r5,r2
 2001134:	d0a01317 	ldw	r2,-32692(gp)
 2001138:	100490fa 	slli	r2,r2,3
 200113c:	108001c4 	addi	r2,r2,7
 2001140:	01204f14 	movui	r4,33084
 2001144:	01bffff4 	movhi	r6,65535
 2001148:	319f7004 	addi	r6,r6,32192
 200114c:	370d883a 	add	r6,r6,fp
 2001150:	3109883a 	add	r4,r6,r4
 2001154:	1085883a 	add	r2,r2,r2
 2001158:	1085883a 	add	r2,r2,r2
 200115c:	2085883a 	add	r2,r4,r2
 2001160:	10800017 	ldw	r2,0(r2)
 2001164:	2884b03a 	or	r2,r5,r2
 2001168:	1009883a 	mov	r4,r2
 200116c:	d0a01404 	addi	r2,gp,-32688
 2001170:	1885883a 	add	r2,r3,r2
 2001174:	11000005 	stb	r4,0(r2)
		      	  printf("\n%u",matriz[i]);
 2001178:	d0e01317 	ldw	r3,-32692(gp)
 200117c:	d0a01404 	addi	r2,gp,-32688
 2001180:	1885883a 	add	r2,r3,r2
 2001184:	10800003 	ldbu	r2,0(r2)
 2001188:	10803fcc 	andi	r2,r2,255
 200118c:	1080201c 	xori	r2,r2,128
 2001190:	10bfe004 	addi	r2,r2,-128
 2001194:	01008074 	movhi	r4,513
 2001198:	21128f04 	addi	r4,r4,19004
 200119c:	100b883a 	mov	r5,r2
 20011a0:	20040c00 	call	20040c0 <printf>
		      for(i=0;i<64;i++)
			{
			      printf("\n%u",pattern[i]);
			      //matriz[i/8]=(((((((((((pattern[i/8]<<1) | pattern[i/8 +2])<<1) | pattern[i/8 +3])<<1) | pattern[i/8 +4])<<1) | pattern[i/8 +5])<<1) | pattern[i/8 +6])<<1) | pattern[i/8+7];
			 }
		      for(i=0;i<8;i++)
 20011a4:	d0a01317 	ldw	r2,-32692(gp)
 20011a8:	10800044 	addi	r2,r2,1
 20011ac:	d0a01315 	stw	r2,-32692(gp)
 20011b0:	d0a01317 	ldw	r2,-32692(gp)
 20011b4:	10800210 	cmplti	r2,r2,8
 20011b8:	103f401e 	bne	r2,zero,2000ebc <main+0xc58>
		      	  matriz[i]=(matriz[i]<<1)|pattern[8*i+5];
		      	  matriz[i]=(matriz[i]<<1)|pattern[8*i+6];
		      	  matriz[i]=(matriz[i]<<1)|pattern[8*i+7];
		      	  printf("\n%u",matriz[i]);
		      }
		      sen_2_byte_info(portlog,ADDR_DIG_0,matriz[0]);
 20011bc:	00bffff4 	movhi	r2,65535
 20011c0:	109f7b04 	addi	r2,r2,32236
 20011c4:	1705883a 	add	r2,r2,fp
 20011c8:	10c00017 	ldw	r3,0(r2)
 20011cc:	d0a01403 	ldbu	r2,-32688(gp)
 20011d0:	10803fcc 	andi	r2,r2,255
 20011d4:	1080201c 	xori	r2,r2,128
 20011d8:	10bfe004 	addi	r2,r2,-128
 20011dc:	1809883a 	mov	r4,r3
 20011e0:	01400044 	movi	r5,1
 20011e4:	100d883a 	mov	r6,r2
 20011e8:	2003d340 	call	2003d34 <sen_2_byte_info>
		      	sen_2_byte_info(portlog,ADDR_DIG_1,matriz[1]);
 20011ec:	013ffff4 	movhi	r4,65535
 20011f0:	211f7b04 	addi	r4,r4,32236
 20011f4:	2709883a 	add	r4,r4,fp
 20011f8:	20c00017 	ldw	r3,0(r4)
 20011fc:	d0a01444 	addi	r2,gp,-32687
 2001200:	10800003 	ldbu	r2,0(r2)
 2001204:	10803fcc 	andi	r2,r2,255
 2001208:	1080201c 	xori	r2,r2,128
 200120c:	10bfe004 	addi	r2,r2,-128
 2001210:	1809883a 	mov	r4,r3
 2001214:	01400084 	movi	r5,2
 2001218:	100d883a 	mov	r6,r2
 200121c:	2003d340 	call	2003d34 <sen_2_byte_info>
		      	sen_2_byte_info(portlog,ADDR_DIG_2,matriz[2]);
 2001220:	017ffff4 	movhi	r5,65535
 2001224:	295f7b04 	addi	r5,r5,32236
 2001228:	2f0b883a 	add	r5,r5,fp
 200122c:	28c00017 	ldw	r3,0(r5)
 2001230:	d0a01484 	addi	r2,gp,-32686
 2001234:	10800003 	ldbu	r2,0(r2)
 2001238:	10803fcc 	andi	r2,r2,255
 200123c:	1080201c 	xori	r2,r2,128
 2001240:	10bfe004 	addi	r2,r2,-128
 2001244:	1809883a 	mov	r4,r3
 2001248:	014000c4 	movi	r5,3
 200124c:	100d883a 	mov	r6,r2
 2001250:	2003d340 	call	2003d34 <sen_2_byte_info>
		      	sen_2_byte_info(portlog,ADDR_DIG_3,matriz[3]);
 2001254:	01bffff4 	movhi	r6,65535
 2001258:	319f7b04 	addi	r6,r6,32236
 200125c:	370d883a 	add	r6,r6,fp
 2001260:	30c00017 	ldw	r3,0(r6)
 2001264:	d0a014c4 	addi	r2,gp,-32685
 2001268:	10800003 	ldbu	r2,0(r2)
 200126c:	10803fcc 	andi	r2,r2,255
 2001270:	1080201c 	xori	r2,r2,128
 2001274:	10bfe004 	addi	r2,r2,-128
 2001278:	1809883a 	mov	r4,r3
 200127c:	01400104 	movi	r5,4
 2001280:	100d883a 	mov	r6,r2
 2001284:	2003d340 	call	2003d34 <sen_2_byte_info>
		      	sen_2_byte_info(portlog,ADDR_DIG_4,matriz[4]);
 2001288:	00bffff4 	movhi	r2,65535
 200128c:	109f7b04 	addi	r2,r2,32236
 2001290:	1705883a 	add	r2,r2,fp
 2001294:	10c00017 	ldw	r3,0(r2)
 2001298:	d0a01504 	addi	r2,gp,-32684
 200129c:	10800003 	ldbu	r2,0(r2)
 20012a0:	10803fcc 	andi	r2,r2,255
 20012a4:	1080201c 	xori	r2,r2,128
 20012a8:	10bfe004 	addi	r2,r2,-128
 20012ac:	1809883a 	mov	r4,r3
 20012b0:	01400144 	movi	r5,5
 20012b4:	100d883a 	mov	r6,r2
 20012b8:	2003d340 	call	2003d34 <sen_2_byte_info>
		      	sen_2_byte_info(portlog,ADDR_DIG_5,matriz[5]);
 20012bc:	013ffff4 	movhi	r4,65535
 20012c0:	211f7b04 	addi	r4,r4,32236
 20012c4:	2709883a 	add	r4,r4,fp
 20012c8:	20c00017 	ldw	r3,0(r4)
 20012cc:	d0a01544 	addi	r2,gp,-32683
 20012d0:	10800003 	ldbu	r2,0(r2)
 20012d4:	10803fcc 	andi	r2,r2,255
 20012d8:	1080201c 	xori	r2,r2,128
 20012dc:	10bfe004 	addi	r2,r2,-128
 20012e0:	1809883a 	mov	r4,r3
 20012e4:	01400184 	movi	r5,6
 20012e8:	100d883a 	mov	r6,r2
 20012ec:	2003d340 	call	2003d34 <sen_2_byte_info>
		      	sen_2_byte_info(portlog,ADDR_DIG_6,matriz[6]);
 20012f0:	017ffff4 	movhi	r5,65535
 20012f4:	295f7b04 	addi	r5,r5,32236
 20012f8:	2f0b883a 	add	r5,r5,fp
 20012fc:	28c00017 	ldw	r3,0(r5)
 2001300:	d0a01584 	addi	r2,gp,-32682
 2001304:	10800003 	ldbu	r2,0(r2)
 2001308:	10803fcc 	andi	r2,r2,255
 200130c:	1080201c 	xori	r2,r2,128
 2001310:	10bfe004 	addi	r2,r2,-128
 2001314:	1809883a 	mov	r4,r3
 2001318:	014001c4 	movi	r5,7
 200131c:	100d883a 	mov	r6,r2
 2001320:	2003d340 	call	2003d34 <sen_2_byte_info>
		      	sen_2_byte_info(portlog,ADDR_DIG_7,matriz[7]);
 2001324:	01bffff4 	movhi	r6,65535
 2001328:	319f7b04 	addi	r6,r6,32236
 200132c:	370d883a 	add	r6,r6,fp
 2001330:	30c00017 	ldw	r3,0(r6)
 2001334:	d0a015c4 	addi	r2,gp,-32681
 2001338:	10800003 	ldbu	r2,0(r2)
 200133c:	10803fcc 	andi	r2,r2,255
 2001340:	1080201c 	xori	r2,r2,128
 2001344:	10bfe004 	addi	r2,r2,-128
 2001348:	1809883a 	mov	r4,r3
 200134c:	01400204 	movi	r5,8
 2001350:	100d883a 	mov	r6,r2
 2001354:	2003d340 	call	2003d34 <sen_2_byte_info>
		      unsigned int win = 1;
 2001358:	00800044 	movi	r2,1
 200135c:	00fffff4 	movhi	r3,65535
 2001360:	18df7104 	addi	r3,r3,32196
 2001364:	1f07883a 	add	r3,r3,fp
 2001368:	18800015 	stw	r2,0(r3)
		      while(win==1)
 200136c:	0005e706 	br	2002b0c <main+0x28a8>
			{
			  unsigned int temp = 0;
 2001370:	013ffff4 	movhi	r4,65535
 2001374:	211f7204 	addi	r4,r4,32200
 2001378:	2709883a 	add	r4,r4,fp
 200137c:	20000015 	stw	zero,0(r4)
			  int help;
			  int row;

			  printf("\nDo you want help y/n?");
 2001380:	01008074 	movhi	r4,513
 2001384:	21129004 	addi	r4,r4,19008
 2001388:	20040c00 	call	20040c0 <printf>
			  while((c=IORD(PORT_TECLADO_BASE,0)) != 0b1111)
 200138c:	00001606 	br	20013e8 <main+0x1184>
			    {
				  if(c!=0b0011)
 2001390:	017ffff4 	movhi	r5,65535
 2001394:	295f7c04 	addi	r5,r5,32240
 2001398:	2f0b883a 	add	r5,r5,fp
 200139c:	28800007 	ldb	r2,0(r5)
 20013a0:	108000e0 	cmpeqi	r2,r2,3
 20013a4:	1000101e 	bne	r2,zero,20013e8 <main+0x1184>
				  {
			      if(c==0b1100)
 20013a8:	01bffff4 	movhi	r6,65535
 20013ac:	319f7c04 	addi	r6,r6,32240
 20013b0:	370d883a 	add	r6,r6,fp
 20013b4:	30800007 	ldb	r2,0(r6)
 20013b8:	10800318 	cmpnei	r2,r2,12
 20013bc:	1000061e 	bne	r2,zero,20013d8 <main+0x1174>
				{
				  help = 1;
 20013c0:	00800044 	movi	r2,1
 20013c4:	00fffff4 	movhi	r3,65535
 20013c8:	18df7304 	addi	r3,r3,32204
 20013cc:	1f07883a 	add	r3,r3,fp
 20013d0:	18800015 	stw	r2,0(r3)
 20013d4:	00000406 	br	20013e8 <main+0x1184>
				}
			      else
				{
				  help = 0;
 20013d8:	013ffff4 	movhi	r4,65535
 20013dc:	211f7304 	addi	r4,r4,32204
 20013e0:	2709883a 	add	r4,r4,fp
 20013e4:	20000015 	stw	zero,0(r4)
			  unsigned int temp = 0;
			  int help;
			  int row;

			  printf("\nDo you want help y/n?");
			  while((c=IORD(PORT_TECLADO_BASE,0)) != 0b1111)
 20013e8:	00810034 	movhi	r2,1024
 20013ec:	10880804 	addi	r2,r2,8224
 20013f0:	10800037 	ldwio	r2,0(r2)
 20013f4:	017ffff4 	movhi	r5,65535
 20013f8:	295f7c04 	addi	r5,r5,32240
 20013fc:	2f0b883a 	add	r5,r5,fp
 2001400:	28800005 	stb	r2,0(r5)
 2001404:	01bffff4 	movhi	r6,65535
 2001408:	319f7c04 	addi	r6,r6,32240
 200140c:	370d883a 	add	r6,r6,fp
 2001410:	30800007 	ldb	r2,0(r6)
 2001414:	108003d8 	cmpnei	r2,r2,15
 2001418:	103fdd1e 	bne	r2,zero,2001390 <main+0x112c>
				{
				  help = 0;
				}
				  }
			    }
			  while((c = IORD(PORT_TECLADO_BASE,0)) != 0b0011)
 200141c:	0001883a 	nop
 2001420:	00810034 	movhi	r2,1024
 2001424:	10880804 	addi	r2,r2,8224
 2001428:	10800037 	ldwio	r2,0(r2)
 200142c:	00fffff4 	movhi	r3,65535
 2001430:	18df7c04 	addi	r3,r3,32240
 2001434:	1f07883a 	add	r3,r3,fp
 2001438:	18800005 	stb	r2,0(r3)
 200143c:	013ffff4 	movhi	r4,65535
 2001440:	211f7c04 	addi	r4,r4,32240
 2001444:	2709883a 	add	r4,r4,fp
 2001448:	20800007 	ldb	r2,0(r4)
 200144c:	108000d8 	cmpnei	r2,r2,3
 2001450:	103ff31e 	bne	r2,zero,2001420 <main+0x11bc>
			  		  {
			  		  }
			  if(help==1)
 2001454:	017ffff4 	movhi	r5,65535
 2001458:	295f7304 	addi	r5,r5,32204
 200145c:	2f0b883a 	add	r5,r5,fp
 2001460:	28800017 	ldw	r2,0(r5)
 2001464:	10800058 	cmpnei	r2,r2,1
 2001468:	10005b1e 	bne	r2,zero,20015d8 <main+0x1374>
			    {
			      printf("\npress this positions");
 200146c:	01008074 	movhi	r4,513
 2001470:	21129604 	addi	r4,r4,19032
 2001474:	20040c00 	call	20040c0 <printf>
			      for(i=0;i<64;i++)
 2001478:	d0201315 	stw	zero,-32692(gp)
 200147c:	00003d06 	br	2001574 <main+0x1310>
				{
				  unsigned int temp=0;
 2001480:	01bffff4 	movhi	r6,65535
 2001484:	319f7504 	addi	r6,r6,32212
 2001488:	370d883a 	add	r6,r6,fp
 200148c:	30000015 	stw	zero,0(r6)
				  for(j=0;j<64;j++)
 2001490:	d0201215 	stw	zero,-32696(gp)
 2001494:	00002306 	br	2001524 <main+0x12c0>
				    {
				      temp = temp^(inverse[i][j]&pattern[j]);
 2001498:	d0e01317 	ldw	r3,-32692(gp)
 200149c:	d0a01217 	ldw	r2,-32696(gp)
 20014a0:	180691ba 	slli	r3,r3,6
 20014a4:	1885883a 	add	r2,r3,r2
 20014a8:	1085883a 	add	r2,r2,r2
 20014ac:	1085883a 	add	r2,r2,r2
 20014b0:	00fffff4 	movhi	r3,65535
 20014b4:	18df7004 	addi	r3,r3,32192
 20014b8:	1f07883a 	add	r3,r3,fp
 20014bc:	1885883a 	add	r2,r3,r2
 20014c0:	10800f04 	addi	r2,r2,60
 20014c4:	10c00017 	ldw	r3,0(r2)
 20014c8:	d0a01217 	ldw	r2,-32696(gp)
 20014cc:	01204f14 	movui	r4,33084
 20014d0:	017ffff4 	movhi	r5,65535
 20014d4:	295f7004 	addi	r5,r5,32192
 20014d8:	2f0b883a 	add	r5,r5,fp
 20014dc:	2909883a 	add	r4,r5,r4
 20014e0:	1085883a 	add	r2,r2,r2
 20014e4:	1085883a 	add	r2,r2,r2
 20014e8:	2085883a 	add	r2,r4,r2
 20014ec:	10800017 	ldw	r2,0(r2)
 20014f0:	1884703a 	and	r2,r3,r2
 20014f4:	01bffff4 	movhi	r6,65535
 20014f8:	319f7504 	addi	r6,r6,32212
 20014fc:	370d883a 	add	r6,r6,fp
 2001500:	30c00017 	ldw	r3,0(r6)
 2001504:	1884f03a 	xor	r2,r3,r2
 2001508:	00fffff4 	movhi	r3,65535
 200150c:	18df7504 	addi	r3,r3,32212
 2001510:	1f07883a 	add	r3,r3,fp
 2001514:	18800015 	stw	r2,0(r3)
			    {
			      printf("\npress this positions");
			      for(i=0;i<64;i++)
				{
				  unsigned int temp=0;
				  for(j=0;j<64;j++)
 2001518:	d0a01217 	ldw	r2,-32696(gp)
 200151c:	10800044 	addi	r2,r2,1
 2001520:	d0a01215 	stw	r2,-32696(gp)
 2001524:	d0a01217 	ldw	r2,-32696(gp)
 2001528:	10801010 	cmplti	r2,r2,64
 200152c:	103fda1e 	bne	r2,zero,2001498 <main+0x1234>
				    {
				      temp = temp^(inverse[i][j]&pattern[j]);
				    }
				  solution[i]=temp;
 2001530:	d0a01317 	ldw	r2,-32692(gp)
 2001534:	00e00f14 	movui	r3,32828
 2001538:	013ffff4 	movhi	r4,65535
 200153c:	211f7004 	addi	r4,r4,32192
 2001540:	2709883a 	add	r4,r4,fp
 2001544:	20c7883a 	add	r3,r4,r3
 2001548:	1085883a 	add	r2,r2,r2
 200154c:	1085883a 	add	r2,r2,r2
 2001550:	1885883a 	add	r2,r3,r2
 2001554:	017ffff4 	movhi	r5,65535
 2001558:	295f7504 	addi	r5,r5,32212
 200155c:	2f0b883a 	add	r5,r5,fp
 2001560:	28c00017 	ldw	r3,0(r5)
 2001564:	10c00015 	stw	r3,0(r2)
			  		  {
			  		  }
			  if(help==1)
			    {
			      printf("\npress this positions");
			      for(i=0;i<64;i++)
 2001568:	d0a01317 	ldw	r2,-32692(gp)
 200156c:	10800044 	addi	r2,r2,1
 2001570:	d0a01315 	stw	r2,-32692(gp)
 2001574:	d0a01317 	ldw	r2,-32692(gp)
 2001578:	10801010 	cmplti	r2,r2,64
 200157c:	103fc01e 	bne	r2,zero,2001480 <main+0x121c>
				    {
				      temp = temp^(inverse[i][j]&pattern[j]);
				    }
				  solution[i]=temp;
				}
			      for(i=0;i<64;i++)
 2001580:	d0201315 	stw	zero,-32692(gp)
 2001584:	00001106 	br	20015cc <main+0x1368>
				{
				      printf("\n%u",solution[i]);
 2001588:	d0a01317 	ldw	r2,-32692(gp)
 200158c:	00e00f14 	movui	r3,32828
 2001590:	01bffff4 	movhi	r6,65535
 2001594:	319f7004 	addi	r6,r6,32192
 2001598:	370d883a 	add	r6,r6,fp
 200159c:	30c7883a 	add	r3,r6,r3
 20015a0:	1085883a 	add	r2,r2,r2
 20015a4:	1085883a 	add	r2,r2,r2
 20015a8:	1885883a 	add	r2,r3,r2
 20015ac:	10800017 	ldw	r2,0(r2)
 20015b0:	01008074 	movhi	r4,513
 20015b4:	21128f04 	addi	r4,r4,19004
 20015b8:	100b883a 	mov	r5,r2
 20015bc:	20040c00 	call	20040c0 <printf>
				    {
				      temp = temp^(inverse[i][j]&pattern[j]);
				    }
				  solution[i]=temp;
				}
			      for(i=0;i<64;i++)
 20015c0:	d0a01317 	ldw	r2,-32692(gp)
 20015c4:	10800044 	addi	r2,r2,1
 20015c8:	d0a01315 	stw	r2,-32692(gp)
 20015cc:	d0a01317 	ldw	r2,-32692(gp)
 20015d0:	10801010 	cmplti	r2,r2,64
 20015d4:	103fec1e 	bne	r2,zero,2001588 <main+0x1324>
				      printf("\n%u",solution[i]);
				      //matriz[i/8]=(((((((((((solution[i/8]<<1) | solution[i/8 +2])<<1) | solution[i/8 +3])<<1) | solution[i/8 +4])<<1) | solution[i/8 +5])<<1) | solution[i/8 +6])<<1) | solution[i/8+7];

				}
			    }
			  for(i=0;i<8;i++)
 20015d8:	d0201315 	stw	zero,-32692(gp)
 20015dc:	0000bd06 	br	20018d4 <main+0x1670>
				{
				  matriz[i]=(solution[8*i]<<1)|solution[8*i+1];
 20015e0:	d0e01317 	ldw	r3,-32692(gp)
 20015e4:	d0a01317 	ldw	r2,-32692(gp)
 20015e8:	100490fa 	slli	r2,r2,3
 20015ec:	01200f14 	movui	r4,32828
 20015f0:	017ffff4 	movhi	r5,65535
 20015f4:	295f7004 	addi	r5,r5,32192
 20015f8:	2f0b883a 	add	r5,r5,fp
 20015fc:	2909883a 	add	r4,r5,r4
 2001600:	1085883a 	add	r2,r2,r2
 2001604:	1085883a 	add	r2,r2,r2
 2001608:	2085883a 	add	r2,r4,r2
 200160c:	10800017 	ldw	r2,0(r2)
 2001610:	1085883a 	add	r2,r2,r2
 2001614:	100b883a 	mov	r5,r2
 2001618:	d0a01317 	ldw	r2,-32692(gp)
 200161c:	100490fa 	slli	r2,r2,3
 2001620:	10800044 	addi	r2,r2,1
 2001624:	01200f14 	movui	r4,32828
 2001628:	01bffff4 	movhi	r6,65535
 200162c:	319f7004 	addi	r6,r6,32192
 2001630:	370d883a 	add	r6,r6,fp
 2001634:	3109883a 	add	r4,r6,r4
 2001638:	1085883a 	add	r2,r2,r2
 200163c:	1085883a 	add	r2,r2,r2
 2001640:	2085883a 	add	r2,r4,r2
 2001644:	10800017 	ldw	r2,0(r2)
 2001648:	2884b03a 	or	r2,r5,r2
 200164c:	1009883a 	mov	r4,r2
 2001650:	d0a01404 	addi	r2,gp,-32688
 2001654:	1885883a 	add	r2,r3,r2
 2001658:	11000005 	stb	r4,0(r2)
				  matriz[i]=(matriz[i]<<1)|solution[8*i+2];
 200165c:	d0e01317 	ldw	r3,-32692(gp)
 2001660:	d1201317 	ldw	r4,-32692(gp)
 2001664:	d0a01404 	addi	r2,gp,-32688
 2001668:	2085883a 	add	r2,r4,r2
 200166c:	10800003 	ldbu	r2,0(r2)
 2001670:	1085883a 	add	r2,r2,r2
 2001674:	100b883a 	mov	r5,r2
 2001678:	d0a01317 	ldw	r2,-32692(gp)
 200167c:	100490fa 	slli	r2,r2,3
 2001680:	10800084 	addi	r2,r2,2
 2001684:	01200f14 	movui	r4,32828
 2001688:	01bffff4 	movhi	r6,65535
 200168c:	319f7004 	addi	r6,r6,32192
 2001690:	370d883a 	add	r6,r6,fp
 2001694:	3109883a 	add	r4,r6,r4
 2001698:	1085883a 	add	r2,r2,r2
 200169c:	1085883a 	add	r2,r2,r2
 20016a0:	2085883a 	add	r2,r4,r2
 20016a4:	10800017 	ldw	r2,0(r2)
 20016a8:	2884b03a 	or	r2,r5,r2
 20016ac:	1009883a 	mov	r4,r2
 20016b0:	d0a01404 	addi	r2,gp,-32688
 20016b4:	1885883a 	add	r2,r3,r2
 20016b8:	11000005 	stb	r4,0(r2)
				  matriz[i]=(matriz[i]<<1)|solution[8*i+3];
 20016bc:	d0e01317 	ldw	r3,-32692(gp)
 20016c0:	d1201317 	ldw	r4,-32692(gp)
 20016c4:	d0a01404 	addi	r2,gp,-32688
 20016c8:	2085883a 	add	r2,r4,r2
 20016cc:	10800003 	ldbu	r2,0(r2)
 20016d0:	1085883a 	add	r2,r2,r2
 20016d4:	100b883a 	mov	r5,r2
 20016d8:	d0a01317 	ldw	r2,-32692(gp)
 20016dc:	100490fa 	slli	r2,r2,3
 20016e0:	108000c4 	addi	r2,r2,3
 20016e4:	01200f14 	movui	r4,32828
 20016e8:	01bffff4 	movhi	r6,65535
 20016ec:	319f7004 	addi	r6,r6,32192
 20016f0:	370d883a 	add	r6,r6,fp
 20016f4:	3109883a 	add	r4,r6,r4
 20016f8:	1085883a 	add	r2,r2,r2
 20016fc:	1085883a 	add	r2,r2,r2
 2001700:	2085883a 	add	r2,r4,r2
 2001704:	10800017 	ldw	r2,0(r2)
 2001708:	2884b03a 	or	r2,r5,r2
 200170c:	1009883a 	mov	r4,r2
 2001710:	d0a01404 	addi	r2,gp,-32688
 2001714:	1885883a 	add	r2,r3,r2
 2001718:	11000005 	stb	r4,0(r2)
				  matriz[i]=(matriz[i]<<1)|solution[8*i+4];
 200171c:	d0e01317 	ldw	r3,-32692(gp)
 2001720:	d1201317 	ldw	r4,-32692(gp)
 2001724:	d0a01404 	addi	r2,gp,-32688
 2001728:	2085883a 	add	r2,r4,r2
 200172c:	10800003 	ldbu	r2,0(r2)
 2001730:	1085883a 	add	r2,r2,r2
 2001734:	100b883a 	mov	r5,r2
 2001738:	d0a01317 	ldw	r2,-32692(gp)
 200173c:	100490fa 	slli	r2,r2,3
 2001740:	10800104 	addi	r2,r2,4
 2001744:	01200f14 	movui	r4,32828
 2001748:	01bffff4 	movhi	r6,65535
 200174c:	319f7004 	addi	r6,r6,32192
 2001750:	370d883a 	add	r6,r6,fp
 2001754:	3109883a 	add	r4,r6,r4
 2001758:	1085883a 	add	r2,r2,r2
 200175c:	1085883a 	add	r2,r2,r2
 2001760:	2085883a 	add	r2,r4,r2
 2001764:	10800017 	ldw	r2,0(r2)
 2001768:	2884b03a 	or	r2,r5,r2
 200176c:	1009883a 	mov	r4,r2
 2001770:	d0a01404 	addi	r2,gp,-32688
 2001774:	1885883a 	add	r2,r3,r2
 2001778:	11000005 	stb	r4,0(r2)
				  matriz[i]=(matriz[i]<<1)|solution[8*i+5];
 200177c:	d0e01317 	ldw	r3,-32692(gp)
 2001780:	d1201317 	ldw	r4,-32692(gp)
 2001784:	d0a01404 	addi	r2,gp,-32688
 2001788:	2085883a 	add	r2,r4,r2
 200178c:	10800003 	ldbu	r2,0(r2)
 2001790:	1085883a 	add	r2,r2,r2
 2001794:	100b883a 	mov	r5,r2
 2001798:	d0a01317 	ldw	r2,-32692(gp)
 200179c:	100490fa 	slli	r2,r2,3
 20017a0:	10800144 	addi	r2,r2,5
 20017a4:	01200f14 	movui	r4,32828
 20017a8:	01bffff4 	movhi	r6,65535
 20017ac:	319f7004 	addi	r6,r6,32192
 20017b0:	370d883a 	add	r6,r6,fp
 20017b4:	3109883a 	add	r4,r6,r4
 20017b8:	1085883a 	add	r2,r2,r2
 20017bc:	1085883a 	add	r2,r2,r2
 20017c0:	2085883a 	add	r2,r4,r2
 20017c4:	10800017 	ldw	r2,0(r2)
 20017c8:	2884b03a 	or	r2,r5,r2
 20017cc:	1009883a 	mov	r4,r2
 20017d0:	d0a01404 	addi	r2,gp,-32688
 20017d4:	1885883a 	add	r2,r3,r2
 20017d8:	11000005 	stb	r4,0(r2)
				  matriz[i]=(matriz[i]<<1)|solution[8*i+6];
 20017dc:	d0e01317 	ldw	r3,-32692(gp)
 20017e0:	d1201317 	ldw	r4,-32692(gp)
 20017e4:	d0a01404 	addi	r2,gp,-32688
 20017e8:	2085883a 	add	r2,r4,r2
 20017ec:	10800003 	ldbu	r2,0(r2)
 20017f0:	1085883a 	add	r2,r2,r2
 20017f4:	100b883a 	mov	r5,r2
 20017f8:	d0a01317 	ldw	r2,-32692(gp)
 20017fc:	100490fa 	slli	r2,r2,3
 2001800:	10800184 	addi	r2,r2,6
 2001804:	01200f14 	movui	r4,32828
 2001808:	01bffff4 	movhi	r6,65535
 200180c:	319f7004 	addi	r6,r6,32192
 2001810:	370d883a 	add	r6,r6,fp
 2001814:	3109883a 	add	r4,r6,r4
 2001818:	1085883a 	add	r2,r2,r2
 200181c:	1085883a 	add	r2,r2,r2
 2001820:	2085883a 	add	r2,r4,r2
 2001824:	10800017 	ldw	r2,0(r2)
 2001828:	2884b03a 	or	r2,r5,r2
 200182c:	1009883a 	mov	r4,r2
 2001830:	d0a01404 	addi	r2,gp,-32688
 2001834:	1885883a 	add	r2,r3,r2
 2001838:	11000005 	stb	r4,0(r2)
				  matriz[i]=(matriz[i]<<1)|solution[8*i+7];
 200183c:	d0e01317 	ldw	r3,-32692(gp)
 2001840:	d1201317 	ldw	r4,-32692(gp)
 2001844:	d0a01404 	addi	r2,gp,-32688
 2001848:	2085883a 	add	r2,r4,r2
 200184c:	10800003 	ldbu	r2,0(r2)
 2001850:	1085883a 	add	r2,r2,r2
 2001854:	100b883a 	mov	r5,r2
 2001858:	d0a01317 	ldw	r2,-32692(gp)
 200185c:	100490fa 	slli	r2,r2,3
 2001860:	108001c4 	addi	r2,r2,7
 2001864:	01200f14 	movui	r4,32828
 2001868:	01bffff4 	movhi	r6,65535
 200186c:	319f7004 	addi	r6,r6,32192
 2001870:	370d883a 	add	r6,r6,fp
 2001874:	3109883a 	add	r4,r6,r4
 2001878:	1085883a 	add	r2,r2,r2
 200187c:	1085883a 	add	r2,r2,r2
 2001880:	2085883a 	add	r2,r4,r2
 2001884:	10800017 	ldw	r2,0(r2)
 2001888:	2884b03a 	or	r2,r5,r2
 200188c:	1009883a 	mov	r4,r2
 2001890:	d0a01404 	addi	r2,gp,-32688
 2001894:	1885883a 	add	r2,r3,r2
 2001898:	11000005 	stb	r4,0(r2)
				  printf("\n%u",matriz[i]);
 200189c:	d0e01317 	ldw	r3,-32692(gp)
 20018a0:	d0a01404 	addi	r2,gp,-32688
 20018a4:	1885883a 	add	r2,r3,r2
 20018a8:	10800003 	ldbu	r2,0(r2)
 20018ac:	10803fcc 	andi	r2,r2,255
 20018b0:	1080201c 	xori	r2,r2,128
 20018b4:	10bfe004 	addi	r2,r2,-128
 20018b8:	01008074 	movhi	r4,513
 20018bc:	21128f04 	addi	r4,r4,19004
 20018c0:	100b883a 	mov	r5,r2
 20018c4:	20040c00 	call	20040c0 <printf>
				      printf("\n%u",solution[i]);
				      //matriz[i/8]=(((((((((((solution[i/8]<<1) | solution[i/8 +2])<<1) | solution[i/8 +3])<<1) | solution[i/8 +4])<<1) | solution[i/8 +5])<<1) | solution[i/8 +6])<<1) | solution[i/8+7];

				}
			    }
			  for(i=0;i<8;i++)
 20018c8:	d0a01317 	ldw	r2,-32692(gp)
 20018cc:	10800044 	addi	r2,r2,1
 20018d0:	d0a01315 	stw	r2,-32692(gp)
 20018d4:	d0a01317 	ldw	r2,-32692(gp)
 20018d8:	10800210 	cmplti	r2,r2,8
 20018dc:	103f401e 	bne	r2,zero,20015e0 <main+0x137c>
				  matriz[i]=(matriz[i]<<1)|solution[8*i+5];
				  matriz[i]=(matriz[i]<<1)|solution[8*i+6];
				  matriz[i]=(matriz[i]<<1)|solution[8*i+7];
				  printf("\n%u",matriz[i]);
				}
			  sen_2_byte_info(portlog,ADDR_DIG_0,matriz[0]);
 20018e0:	00bffff4 	movhi	r2,65535
 20018e4:	109f7b04 	addi	r2,r2,32236
 20018e8:	1705883a 	add	r2,r2,fp
 20018ec:	10c00017 	ldw	r3,0(r2)
 20018f0:	d0a01403 	ldbu	r2,-32688(gp)
 20018f4:	10803fcc 	andi	r2,r2,255
 20018f8:	1080201c 	xori	r2,r2,128
 20018fc:	10bfe004 	addi	r2,r2,-128
 2001900:	1809883a 	mov	r4,r3
 2001904:	01400044 	movi	r5,1
 2001908:	100d883a 	mov	r6,r2
 200190c:	2003d340 	call	2003d34 <sen_2_byte_info>
			  	sen_2_byte_info(portlog,ADDR_DIG_1,matriz[1]);
 2001910:	013ffff4 	movhi	r4,65535
 2001914:	211f7b04 	addi	r4,r4,32236
 2001918:	2709883a 	add	r4,r4,fp
 200191c:	20c00017 	ldw	r3,0(r4)
 2001920:	d0a01444 	addi	r2,gp,-32687
 2001924:	10800003 	ldbu	r2,0(r2)
 2001928:	10803fcc 	andi	r2,r2,255
 200192c:	1080201c 	xori	r2,r2,128
 2001930:	10bfe004 	addi	r2,r2,-128
 2001934:	1809883a 	mov	r4,r3
 2001938:	01400084 	movi	r5,2
 200193c:	100d883a 	mov	r6,r2
 2001940:	2003d340 	call	2003d34 <sen_2_byte_info>
			  	sen_2_byte_info(portlog,ADDR_DIG_2,matriz[2]);
 2001944:	017ffff4 	movhi	r5,65535
 2001948:	295f7b04 	addi	r5,r5,32236
 200194c:	2f0b883a 	add	r5,r5,fp
 2001950:	28c00017 	ldw	r3,0(r5)
 2001954:	d0a01484 	addi	r2,gp,-32686
 2001958:	10800003 	ldbu	r2,0(r2)
 200195c:	10803fcc 	andi	r2,r2,255
 2001960:	1080201c 	xori	r2,r2,128
 2001964:	10bfe004 	addi	r2,r2,-128
 2001968:	1809883a 	mov	r4,r3
 200196c:	014000c4 	movi	r5,3
 2001970:	100d883a 	mov	r6,r2
 2001974:	2003d340 	call	2003d34 <sen_2_byte_info>
			  	sen_2_byte_info(portlog,ADDR_DIG_3,matriz[3]);
 2001978:	01bffff4 	movhi	r6,65535
 200197c:	319f7b04 	addi	r6,r6,32236
 2001980:	370d883a 	add	r6,r6,fp
 2001984:	30c00017 	ldw	r3,0(r6)
 2001988:	d0a014c4 	addi	r2,gp,-32685
 200198c:	10800003 	ldbu	r2,0(r2)
 2001990:	10803fcc 	andi	r2,r2,255
 2001994:	1080201c 	xori	r2,r2,128
 2001998:	10bfe004 	addi	r2,r2,-128
 200199c:	1809883a 	mov	r4,r3
 20019a0:	01400104 	movi	r5,4
 20019a4:	100d883a 	mov	r6,r2
 20019a8:	2003d340 	call	2003d34 <sen_2_byte_info>
			  	sen_2_byte_info(portlog,ADDR_DIG_4,matriz[4]);
 20019ac:	00bffff4 	movhi	r2,65535
 20019b0:	109f7b04 	addi	r2,r2,32236
 20019b4:	1705883a 	add	r2,r2,fp
 20019b8:	10c00017 	ldw	r3,0(r2)
 20019bc:	d0a01504 	addi	r2,gp,-32684
 20019c0:	10800003 	ldbu	r2,0(r2)
 20019c4:	10803fcc 	andi	r2,r2,255
 20019c8:	1080201c 	xori	r2,r2,128
 20019cc:	10bfe004 	addi	r2,r2,-128
 20019d0:	1809883a 	mov	r4,r3
 20019d4:	01400144 	movi	r5,5
 20019d8:	100d883a 	mov	r6,r2
 20019dc:	2003d340 	call	2003d34 <sen_2_byte_info>
			  	sen_2_byte_info(portlog,ADDR_DIG_5,matriz[5]);
 20019e0:	013ffff4 	movhi	r4,65535
 20019e4:	211f7b04 	addi	r4,r4,32236
 20019e8:	2709883a 	add	r4,r4,fp
 20019ec:	20c00017 	ldw	r3,0(r4)
 20019f0:	d0a01544 	addi	r2,gp,-32683
 20019f4:	10800003 	ldbu	r2,0(r2)
 20019f8:	10803fcc 	andi	r2,r2,255
 20019fc:	1080201c 	xori	r2,r2,128
 2001a00:	10bfe004 	addi	r2,r2,-128
 2001a04:	1809883a 	mov	r4,r3
 2001a08:	01400184 	movi	r5,6
 2001a0c:	100d883a 	mov	r6,r2
 2001a10:	2003d340 	call	2003d34 <sen_2_byte_info>
			  	sen_2_byte_info(portlog,ADDR_DIG_6,matriz[6]);
 2001a14:	017ffff4 	movhi	r5,65535
 2001a18:	295f7b04 	addi	r5,r5,32236
 2001a1c:	2f0b883a 	add	r5,r5,fp
 2001a20:	28c00017 	ldw	r3,0(r5)
 2001a24:	d0a01584 	addi	r2,gp,-32682
 2001a28:	10800003 	ldbu	r2,0(r2)
 2001a2c:	10803fcc 	andi	r2,r2,255
 2001a30:	1080201c 	xori	r2,r2,128
 2001a34:	10bfe004 	addi	r2,r2,-128
 2001a38:	1809883a 	mov	r4,r3
 2001a3c:	014001c4 	movi	r5,7
 2001a40:	100d883a 	mov	r6,r2
 2001a44:	2003d340 	call	2003d34 <sen_2_byte_info>
			  	sen_2_byte_info(portlog,ADDR_DIG_7,matriz[7]);
 2001a48:	01bffff4 	movhi	r6,65535
 2001a4c:	319f7b04 	addi	r6,r6,32236
 2001a50:	370d883a 	add	r6,r6,fp
 2001a54:	30c00017 	ldw	r3,0(r6)
 2001a58:	d0a015c4 	addi	r2,gp,-32681
 2001a5c:	10800003 	ldbu	r2,0(r2)
 2001a60:	10803fcc 	andi	r2,r2,255
 2001a64:	1080201c 	xori	r2,r2,128
 2001a68:	10bfe004 	addi	r2,r2,-128
 2001a6c:	1809883a 	mov	r4,r3
 2001a70:	01400204 	movi	r5,8
 2001a74:	100d883a 	mov	r6,r2
 2001a78:	2003d340 	call	2003d34 <sen_2_byte_info>
			  while((c=IORD(PORT_TECLADO_BASE,0)) != 0b1100)
 2001a7c:	0000af06 	br	2001d3c <main+0x1ad8>
			  {
				  sen_2_byte_info(portlog,ADDR_DIG_0,matriz[0]);
 2001a80:	00bffff4 	movhi	r2,65535
 2001a84:	109f7b04 	addi	r2,r2,32236
 2001a88:	1705883a 	add	r2,r2,fp
 2001a8c:	10c00017 	ldw	r3,0(r2)
 2001a90:	d0a01403 	ldbu	r2,-32688(gp)
 2001a94:	10803fcc 	andi	r2,r2,255
 2001a98:	1080201c 	xori	r2,r2,128
 2001a9c:	10bfe004 	addi	r2,r2,-128
 2001aa0:	1809883a 	mov	r4,r3
 2001aa4:	01400044 	movi	r5,1
 2001aa8:	100d883a 	mov	r6,r2
 2001aac:	2003d340 	call	2003d34 <sen_2_byte_info>
				  			  	sen_2_byte_info(portlog,ADDR_DIG_1,matriz[1]);
 2001ab0:	013ffff4 	movhi	r4,65535
 2001ab4:	211f7b04 	addi	r4,r4,32236
 2001ab8:	2709883a 	add	r4,r4,fp
 2001abc:	20c00017 	ldw	r3,0(r4)
 2001ac0:	d0a01444 	addi	r2,gp,-32687
 2001ac4:	10800003 	ldbu	r2,0(r2)
 2001ac8:	10803fcc 	andi	r2,r2,255
 2001acc:	1080201c 	xori	r2,r2,128
 2001ad0:	10bfe004 	addi	r2,r2,-128
 2001ad4:	1809883a 	mov	r4,r3
 2001ad8:	01400084 	movi	r5,2
 2001adc:	100d883a 	mov	r6,r2
 2001ae0:	2003d340 	call	2003d34 <sen_2_byte_info>
				  			  	sen_2_byte_info(portlog,ADDR_DIG_2,matriz[2]);
 2001ae4:	017ffff4 	movhi	r5,65535
 2001ae8:	295f7b04 	addi	r5,r5,32236
 2001aec:	2f0b883a 	add	r5,r5,fp
 2001af0:	28c00017 	ldw	r3,0(r5)
 2001af4:	d0a01484 	addi	r2,gp,-32686
 2001af8:	10800003 	ldbu	r2,0(r2)
 2001afc:	10803fcc 	andi	r2,r2,255
 2001b00:	1080201c 	xori	r2,r2,128
 2001b04:	10bfe004 	addi	r2,r2,-128
 2001b08:	1809883a 	mov	r4,r3
 2001b0c:	014000c4 	movi	r5,3
 2001b10:	100d883a 	mov	r6,r2
 2001b14:	2003d340 	call	2003d34 <sen_2_byte_info>
				  			  	sen_2_byte_info(portlog,ADDR_DIG_3,matriz[3]);
 2001b18:	01bffff4 	movhi	r6,65535
 2001b1c:	319f7b04 	addi	r6,r6,32236
 2001b20:	370d883a 	add	r6,r6,fp
 2001b24:	30c00017 	ldw	r3,0(r6)
 2001b28:	d0a014c4 	addi	r2,gp,-32685
 2001b2c:	10800003 	ldbu	r2,0(r2)
 2001b30:	10803fcc 	andi	r2,r2,255
 2001b34:	1080201c 	xori	r2,r2,128
 2001b38:	10bfe004 	addi	r2,r2,-128
 2001b3c:	1809883a 	mov	r4,r3
 2001b40:	01400104 	movi	r5,4
 2001b44:	100d883a 	mov	r6,r2
 2001b48:	2003d340 	call	2003d34 <sen_2_byte_info>
				  			  	sen_2_byte_info(portlog,ADDR_DIG_4,matriz[4]);
 2001b4c:	00bffff4 	movhi	r2,65535
 2001b50:	109f7b04 	addi	r2,r2,32236
 2001b54:	1705883a 	add	r2,r2,fp
 2001b58:	10c00017 	ldw	r3,0(r2)
 2001b5c:	d0a01504 	addi	r2,gp,-32684
 2001b60:	10800003 	ldbu	r2,0(r2)
 2001b64:	10803fcc 	andi	r2,r2,255
 2001b68:	1080201c 	xori	r2,r2,128
 2001b6c:	10bfe004 	addi	r2,r2,-128
 2001b70:	1809883a 	mov	r4,r3
 2001b74:	01400144 	movi	r5,5
 2001b78:	100d883a 	mov	r6,r2
 2001b7c:	2003d340 	call	2003d34 <sen_2_byte_info>
				  			  	sen_2_byte_info(portlog,ADDR_DIG_5,matriz[5]);
 2001b80:	013ffff4 	movhi	r4,65535
 2001b84:	211f7b04 	addi	r4,r4,32236
 2001b88:	2709883a 	add	r4,r4,fp
 2001b8c:	20c00017 	ldw	r3,0(r4)
 2001b90:	d0a01544 	addi	r2,gp,-32683
 2001b94:	10800003 	ldbu	r2,0(r2)
 2001b98:	10803fcc 	andi	r2,r2,255
 2001b9c:	1080201c 	xori	r2,r2,128
 2001ba0:	10bfe004 	addi	r2,r2,-128
 2001ba4:	1809883a 	mov	r4,r3
 2001ba8:	01400184 	movi	r5,6
 2001bac:	100d883a 	mov	r6,r2
 2001bb0:	2003d340 	call	2003d34 <sen_2_byte_info>
				  			  	sen_2_byte_info(portlog,ADDR_DIG_6,matriz[6]);
 2001bb4:	017ffff4 	movhi	r5,65535
 2001bb8:	295f7b04 	addi	r5,r5,32236
 2001bbc:	2f0b883a 	add	r5,r5,fp
 2001bc0:	28c00017 	ldw	r3,0(r5)
 2001bc4:	d0a01584 	addi	r2,gp,-32682
 2001bc8:	10800003 	ldbu	r2,0(r2)
 2001bcc:	10803fcc 	andi	r2,r2,255
 2001bd0:	1080201c 	xori	r2,r2,128
 2001bd4:	10bfe004 	addi	r2,r2,-128
 2001bd8:	1809883a 	mov	r4,r3
 2001bdc:	014001c4 	movi	r5,7
 2001be0:	100d883a 	mov	r6,r2
 2001be4:	2003d340 	call	2003d34 <sen_2_byte_info>
				  			  	sen_2_byte_info(portlog,ADDR_DIG_7,matriz[7]);
 2001be8:	01bffff4 	movhi	r6,65535
 2001bec:	319f7b04 	addi	r6,r6,32236
 2001bf0:	370d883a 	add	r6,r6,fp
 2001bf4:	30c00017 	ldw	r3,0(r6)
 2001bf8:	d0a015c4 	addi	r2,gp,-32681
 2001bfc:	10800003 	ldbu	r2,0(r2)
 2001c00:	10803fcc 	andi	r2,r2,255
 2001c04:	1080201c 	xori	r2,r2,128
 2001c08:	10bfe004 	addi	r2,r2,-128
 2001c0c:	1809883a 	mov	r4,r3
 2001c10:	01400204 	movi	r5,8
 2001c14:	100d883a 	mov	r6,r2
 2001c18:	2003d340 	call	2003d34 <sen_2_byte_info>
				  for(i=0;i<50000;i++)
 2001c1c:	d0201315 	stw	zero,-32692(gp)
 2001c20:	00000306 	br	2001c30 <main+0x19cc>
 2001c24:	d0a01317 	ldw	r2,-32692(gp)
 2001c28:	10800044 	addi	r2,r2,1
 2001c2c:	d0a01315 	stw	r2,-32692(gp)
 2001c30:	d0a01317 	ldw	r2,-32692(gp)
 2001c34:	00f0d3d4 	movui	r3,49999
 2001c38:	18bffa0e 	bge	r3,r2,2001c24 <main+0x19c0>
				  {

				  }
				  sen_2_byte_info(portlog,ADDR_DIG_0,0b00000000);
 2001c3c:	00fffff4 	movhi	r3,65535
 2001c40:	18df7b04 	addi	r3,r3,32236
 2001c44:	1f07883a 	add	r3,r3,fp
 2001c48:	18800017 	ldw	r2,0(r3)
 2001c4c:	1009883a 	mov	r4,r2
 2001c50:	01400044 	movi	r5,1
 2001c54:	000d883a 	mov	r6,zero
 2001c58:	2003d340 	call	2003d34 <sen_2_byte_info>
				  			  	sen_2_byte_info(portlog,ADDR_DIG_1,0b00000000);
 2001c5c:	013ffff4 	movhi	r4,65535
 2001c60:	211f7b04 	addi	r4,r4,32236
 2001c64:	2709883a 	add	r4,r4,fp
 2001c68:	20800017 	ldw	r2,0(r4)
 2001c6c:	1009883a 	mov	r4,r2
 2001c70:	01400084 	movi	r5,2
 2001c74:	000d883a 	mov	r6,zero
 2001c78:	2003d340 	call	2003d34 <sen_2_byte_info>
				  			  	sen_2_byte_info(portlog,ADDR_DIG_2,0b00000000);
 2001c7c:	017ffff4 	movhi	r5,65535
 2001c80:	295f7b04 	addi	r5,r5,32236
 2001c84:	2f0b883a 	add	r5,r5,fp
 2001c88:	28800017 	ldw	r2,0(r5)
 2001c8c:	1009883a 	mov	r4,r2
 2001c90:	014000c4 	movi	r5,3
 2001c94:	000d883a 	mov	r6,zero
 2001c98:	2003d340 	call	2003d34 <sen_2_byte_info>
				  			  	sen_2_byte_info(portlog,ADDR_DIG_3,0b00000000);
 2001c9c:	01bffff4 	movhi	r6,65535
 2001ca0:	319f7b04 	addi	r6,r6,32236
 2001ca4:	370d883a 	add	r6,r6,fp
 2001ca8:	30800017 	ldw	r2,0(r6)
 2001cac:	1009883a 	mov	r4,r2
 2001cb0:	01400104 	movi	r5,4
 2001cb4:	000d883a 	mov	r6,zero
 2001cb8:	2003d340 	call	2003d34 <sen_2_byte_info>
				  			  	sen_2_byte_info(portlog,ADDR_DIG_4,0b00000000);
 2001cbc:	00fffff4 	movhi	r3,65535
 2001cc0:	18df7b04 	addi	r3,r3,32236
 2001cc4:	1f07883a 	add	r3,r3,fp
 2001cc8:	18800017 	ldw	r2,0(r3)
 2001ccc:	1009883a 	mov	r4,r2
 2001cd0:	01400144 	movi	r5,5
 2001cd4:	000d883a 	mov	r6,zero
 2001cd8:	2003d340 	call	2003d34 <sen_2_byte_info>
				  			  	sen_2_byte_info(portlog,ADDR_DIG_5,0b00000000);
 2001cdc:	013ffff4 	movhi	r4,65535
 2001ce0:	211f7b04 	addi	r4,r4,32236
 2001ce4:	2709883a 	add	r4,r4,fp
 2001ce8:	20800017 	ldw	r2,0(r4)
 2001cec:	1009883a 	mov	r4,r2
 2001cf0:	01400184 	movi	r5,6
 2001cf4:	000d883a 	mov	r6,zero
 2001cf8:	2003d340 	call	2003d34 <sen_2_byte_info>
				  			  	sen_2_byte_info(portlog,ADDR_DIG_6,0b00000000);
 2001cfc:	017ffff4 	movhi	r5,65535
 2001d00:	295f7b04 	addi	r5,r5,32236
 2001d04:	2f0b883a 	add	r5,r5,fp
 2001d08:	28800017 	ldw	r2,0(r5)
 2001d0c:	1009883a 	mov	r4,r2
 2001d10:	014001c4 	movi	r5,7
 2001d14:	000d883a 	mov	r6,zero
 2001d18:	2003d340 	call	2003d34 <sen_2_byte_info>
				  			  	sen_2_byte_info(portlog,ADDR_DIG_7,0b00000000);
 2001d1c:	01bffff4 	movhi	r6,65535
 2001d20:	319f7b04 	addi	r6,r6,32236
 2001d24:	370d883a 	add	r6,r6,fp
 2001d28:	30800017 	ldw	r2,0(r6)
 2001d2c:	1009883a 	mov	r4,r2
 2001d30:	01400204 	movi	r5,8
 2001d34:	000d883a 	mov	r6,zero
 2001d38:	2003d340 	call	2003d34 <sen_2_byte_info>
			  	sen_2_byte_info(portlog,ADDR_DIG_3,matriz[3]);
			  	sen_2_byte_info(portlog,ADDR_DIG_4,matriz[4]);
			  	sen_2_byte_info(portlog,ADDR_DIG_5,matriz[5]);
			  	sen_2_byte_info(portlog,ADDR_DIG_6,matriz[6]);
			  	sen_2_byte_info(portlog,ADDR_DIG_7,matriz[7]);
			  while((c=IORD(PORT_TECLADO_BASE,0)) != 0b1100)
 2001d3c:	00810034 	movhi	r2,1024
 2001d40:	10880804 	addi	r2,r2,8224
 2001d44:	10800037 	ldwio	r2,0(r2)
 2001d48:	00fffff4 	movhi	r3,65535
 2001d4c:	18df7c04 	addi	r3,r3,32240
 2001d50:	1f07883a 	add	r3,r3,fp
 2001d54:	18800005 	stb	r2,0(r3)
 2001d58:	013ffff4 	movhi	r4,65535
 2001d5c:	211f7c04 	addi	r4,r4,32240
 2001d60:	2709883a 	add	r4,r4,fp
 2001d64:	20800007 	ldb	r2,0(r4)
 2001d68:	10800318 	cmpnei	r2,r2,12
 2001d6c:	103f441e 	bne	r2,zero,2001a80 <main+0x181c>
				  			  	sen_2_byte_info(portlog,ADDR_DIG_4,0b00000000);
				  			  	sen_2_byte_info(portlog,ADDR_DIG_5,0b00000000);
				  			  	sen_2_byte_info(portlog,ADDR_DIG_6,0b00000000);
				  			  	sen_2_byte_info(portlog,ADDR_DIG_7,0b00000000);
			  }
			  for(i=0;i<8;i++)
 2001d70:	d0201315 	stw	zero,-32692(gp)
 2001d74:	0000bd06 	br	200206c <main+0x1e08>
			  			  	    {
			  			  	      matriz[i]=(pattern[8*i]<<1)|pattern[8*i+1];
 2001d78:	d0e01317 	ldw	r3,-32692(gp)
 2001d7c:	d0a01317 	ldw	r2,-32692(gp)
 2001d80:	100490fa 	slli	r2,r2,3
 2001d84:	01204f14 	movui	r4,33084
 2001d88:	017ffff4 	movhi	r5,65535
 2001d8c:	295f7004 	addi	r5,r5,32192
 2001d90:	2f0b883a 	add	r5,r5,fp
 2001d94:	2909883a 	add	r4,r5,r4
 2001d98:	1085883a 	add	r2,r2,r2
 2001d9c:	1085883a 	add	r2,r2,r2
 2001da0:	2085883a 	add	r2,r4,r2
 2001da4:	10800017 	ldw	r2,0(r2)
 2001da8:	1085883a 	add	r2,r2,r2
 2001dac:	100b883a 	mov	r5,r2
 2001db0:	d0a01317 	ldw	r2,-32692(gp)
 2001db4:	100490fa 	slli	r2,r2,3
 2001db8:	10800044 	addi	r2,r2,1
 2001dbc:	01204f14 	movui	r4,33084
 2001dc0:	01bffff4 	movhi	r6,65535
 2001dc4:	319f7004 	addi	r6,r6,32192
 2001dc8:	370d883a 	add	r6,r6,fp
 2001dcc:	3109883a 	add	r4,r6,r4
 2001dd0:	1085883a 	add	r2,r2,r2
 2001dd4:	1085883a 	add	r2,r2,r2
 2001dd8:	2085883a 	add	r2,r4,r2
 2001ddc:	10800017 	ldw	r2,0(r2)
 2001de0:	2884b03a 	or	r2,r5,r2
 2001de4:	1009883a 	mov	r4,r2
 2001de8:	d0a01404 	addi	r2,gp,-32688
 2001dec:	1885883a 	add	r2,r3,r2
 2001df0:	11000005 	stb	r4,0(r2)
			  			  	      matriz[i]=(matriz[i]<<1)|pattern[8*i+2];
 2001df4:	d0e01317 	ldw	r3,-32692(gp)
 2001df8:	d1201317 	ldw	r4,-32692(gp)
 2001dfc:	d0a01404 	addi	r2,gp,-32688
 2001e00:	2085883a 	add	r2,r4,r2
 2001e04:	10800003 	ldbu	r2,0(r2)
 2001e08:	1085883a 	add	r2,r2,r2
 2001e0c:	100b883a 	mov	r5,r2
 2001e10:	d0a01317 	ldw	r2,-32692(gp)
 2001e14:	100490fa 	slli	r2,r2,3
 2001e18:	10800084 	addi	r2,r2,2
 2001e1c:	01204f14 	movui	r4,33084
 2001e20:	01bffff4 	movhi	r6,65535
 2001e24:	319f7004 	addi	r6,r6,32192
 2001e28:	370d883a 	add	r6,r6,fp
 2001e2c:	3109883a 	add	r4,r6,r4
 2001e30:	1085883a 	add	r2,r2,r2
 2001e34:	1085883a 	add	r2,r2,r2
 2001e38:	2085883a 	add	r2,r4,r2
 2001e3c:	10800017 	ldw	r2,0(r2)
 2001e40:	2884b03a 	or	r2,r5,r2
 2001e44:	1009883a 	mov	r4,r2
 2001e48:	d0a01404 	addi	r2,gp,-32688
 2001e4c:	1885883a 	add	r2,r3,r2
 2001e50:	11000005 	stb	r4,0(r2)
			  			  	      matriz[i]=(matriz[i]<<1)|pattern[8*i+3];
 2001e54:	d0e01317 	ldw	r3,-32692(gp)
 2001e58:	d1201317 	ldw	r4,-32692(gp)
 2001e5c:	d0a01404 	addi	r2,gp,-32688
 2001e60:	2085883a 	add	r2,r4,r2
 2001e64:	10800003 	ldbu	r2,0(r2)
 2001e68:	1085883a 	add	r2,r2,r2
 2001e6c:	100b883a 	mov	r5,r2
 2001e70:	d0a01317 	ldw	r2,-32692(gp)
 2001e74:	100490fa 	slli	r2,r2,3
 2001e78:	108000c4 	addi	r2,r2,3
 2001e7c:	01204f14 	movui	r4,33084
 2001e80:	01bffff4 	movhi	r6,65535
 2001e84:	319f7004 	addi	r6,r6,32192
 2001e88:	370d883a 	add	r6,r6,fp
 2001e8c:	3109883a 	add	r4,r6,r4
 2001e90:	1085883a 	add	r2,r2,r2
 2001e94:	1085883a 	add	r2,r2,r2
 2001e98:	2085883a 	add	r2,r4,r2
 2001e9c:	10800017 	ldw	r2,0(r2)
 2001ea0:	2884b03a 	or	r2,r5,r2
 2001ea4:	1009883a 	mov	r4,r2
 2001ea8:	d0a01404 	addi	r2,gp,-32688
 2001eac:	1885883a 	add	r2,r3,r2
 2001eb0:	11000005 	stb	r4,0(r2)
			  			  	      matriz[i]=(matriz[i]<<1)|pattern[8*i+4];
 2001eb4:	d0e01317 	ldw	r3,-32692(gp)
 2001eb8:	d1201317 	ldw	r4,-32692(gp)
 2001ebc:	d0a01404 	addi	r2,gp,-32688
 2001ec0:	2085883a 	add	r2,r4,r2
 2001ec4:	10800003 	ldbu	r2,0(r2)
 2001ec8:	1085883a 	add	r2,r2,r2
 2001ecc:	100b883a 	mov	r5,r2
 2001ed0:	d0a01317 	ldw	r2,-32692(gp)
 2001ed4:	100490fa 	slli	r2,r2,3
 2001ed8:	10800104 	addi	r2,r2,4
 2001edc:	01204f14 	movui	r4,33084
 2001ee0:	01bffff4 	movhi	r6,65535
 2001ee4:	319f7004 	addi	r6,r6,32192
 2001ee8:	370d883a 	add	r6,r6,fp
 2001eec:	3109883a 	add	r4,r6,r4
 2001ef0:	1085883a 	add	r2,r2,r2
 2001ef4:	1085883a 	add	r2,r2,r2
 2001ef8:	2085883a 	add	r2,r4,r2
 2001efc:	10800017 	ldw	r2,0(r2)
 2001f00:	2884b03a 	or	r2,r5,r2
 2001f04:	1009883a 	mov	r4,r2
 2001f08:	d0a01404 	addi	r2,gp,-32688
 2001f0c:	1885883a 	add	r2,r3,r2
 2001f10:	11000005 	stb	r4,0(r2)
			  			  	      matriz[i]=(matriz[i]<<1)|pattern[8*i+5];
 2001f14:	d0e01317 	ldw	r3,-32692(gp)
 2001f18:	d1201317 	ldw	r4,-32692(gp)
 2001f1c:	d0a01404 	addi	r2,gp,-32688
 2001f20:	2085883a 	add	r2,r4,r2
 2001f24:	10800003 	ldbu	r2,0(r2)
 2001f28:	1085883a 	add	r2,r2,r2
 2001f2c:	100b883a 	mov	r5,r2
 2001f30:	d0a01317 	ldw	r2,-32692(gp)
 2001f34:	100490fa 	slli	r2,r2,3
 2001f38:	10800144 	addi	r2,r2,5
 2001f3c:	01204f14 	movui	r4,33084
 2001f40:	01bffff4 	movhi	r6,65535
 2001f44:	319f7004 	addi	r6,r6,32192
 2001f48:	370d883a 	add	r6,r6,fp
 2001f4c:	3109883a 	add	r4,r6,r4
 2001f50:	1085883a 	add	r2,r2,r2
 2001f54:	1085883a 	add	r2,r2,r2
 2001f58:	2085883a 	add	r2,r4,r2
 2001f5c:	10800017 	ldw	r2,0(r2)
 2001f60:	2884b03a 	or	r2,r5,r2
 2001f64:	1009883a 	mov	r4,r2
 2001f68:	d0a01404 	addi	r2,gp,-32688
 2001f6c:	1885883a 	add	r2,r3,r2
 2001f70:	11000005 	stb	r4,0(r2)
			  			  	      matriz[i]=(matriz[i]<<1)|pattern[8*i+6];
 2001f74:	d0e01317 	ldw	r3,-32692(gp)
 2001f78:	d1201317 	ldw	r4,-32692(gp)
 2001f7c:	d0a01404 	addi	r2,gp,-32688
 2001f80:	2085883a 	add	r2,r4,r2
 2001f84:	10800003 	ldbu	r2,0(r2)
 2001f88:	1085883a 	add	r2,r2,r2
 2001f8c:	100b883a 	mov	r5,r2
 2001f90:	d0a01317 	ldw	r2,-32692(gp)
 2001f94:	100490fa 	slli	r2,r2,3
 2001f98:	10800184 	addi	r2,r2,6
 2001f9c:	01204f14 	movui	r4,33084
 2001fa0:	01bffff4 	movhi	r6,65535
 2001fa4:	319f7004 	addi	r6,r6,32192
 2001fa8:	370d883a 	add	r6,r6,fp
 2001fac:	3109883a 	add	r4,r6,r4
 2001fb0:	1085883a 	add	r2,r2,r2
 2001fb4:	1085883a 	add	r2,r2,r2
 2001fb8:	2085883a 	add	r2,r4,r2
 2001fbc:	10800017 	ldw	r2,0(r2)
 2001fc0:	2884b03a 	or	r2,r5,r2
 2001fc4:	1009883a 	mov	r4,r2
 2001fc8:	d0a01404 	addi	r2,gp,-32688
 2001fcc:	1885883a 	add	r2,r3,r2
 2001fd0:	11000005 	stb	r4,0(r2)
			  			  	      matriz[i]=(matriz[i]<<1)|pattern[8*i+7];
 2001fd4:	d0e01317 	ldw	r3,-32692(gp)
 2001fd8:	d1201317 	ldw	r4,-32692(gp)
 2001fdc:	d0a01404 	addi	r2,gp,-32688
 2001fe0:	2085883a 	add	r2,r4,r2
 2001fe4:	10800003 	ldbu	r2,0(r2)
 2001fe8:	1085883a 	add	r2,r2,r2
 2001fec:	100b883a 	mov	r5,r2
 2001ff0:	d0a01317 	ldw	r2,-32692(gp)
 2001ff4:	100490fa 	slli	r2,r2,3
 2001ff8:	108001c4 	addi	r2,r2,7
 2001ffc:	01204f14 	movui	r4,33084
 2002000:	01bffff4 	movhi	r6,65535
 2002004:	319f7004 	addi	r6,r6,32192
 2002008:	370d883a 	add	r6,r6,fp
 200200c:	3109883a 	add	r4,r6,r4
 2002010:	1085883a 	add	r2,r2,r2
 2002014:	1085883a 	add	r2,r2,r2
 2002018:	2085883a 	add	r2,r4,r2
 200201c:	10800017 	ldw	r2,0(r2)
 2002020:	2884b03a 	or	r2,r5,r2
 2002024:	1009883a 	mov	r4,r2
 2002028:	d0a01404 	addi	r2,gp,-32688
 200202c:	1885883a 	add	r2,r3,r2
 2002030:	11000005 	stb	r4,0(r2)
			  			  	      printf("\n%u",matriz[i]);
 2002034:	d0e01317 	ldw	r3,-32692(gp)
 2002038:	d0a01404 	addi	r2,gp,-32688
 200203c:	1885883a 	add	r2,r3,r2
 2002040:	10800003 	ldbu	r2,0(r2)
 2002044:	10803fcc 	andi	r2,r2,255
 2002048:	1080201c 	xori	r2,r2,128
 200204c:	10bfe004 	addi	r2,r2,-128
 2002050:	01008074 	movhi	r4,513
 2002054:	21128f04 	addi	r4,r4,19004
 2002058:	100b883a 	mov	r5,r2
 200205c:	20040c00 	call	20040c0 <printf>
				  			  	sen_2_byte_info(portlog,ADDR_DIG_4,0b00000000);
				  			  	sen_2_byte_info(portlog,ADDR_DIG_5,0b00000000);
				  			  	sen_2_byte_info(portlog,ADDR_DIG_6,0b00000000);
				  			  	sen_2_byte_info(portlog,ADDR_DIG_7,0b00000000);
			  }
			  for(i=0;i<8;i++)
 2002060:	d0a01317 	ldw	r2,-32692(gp)
 2002064:	10800044 	addi	r2,r2,1
 2002068:	d0a01315 	stw	r2,-32692(gp)
 200206c:	d0a01317 	ldw	r2,-32692(gp)
 2002070:	10800210 	cmplti	r2,r2,8
 2002074:	103f401e 	bne	r2,zero,2001d78 <main+0x1b14>
			  			  	      matriz[i]=(matriz[i]<<1)|pattern[8*i+5];
			  			  	      matriz[i]=(matriz[i]<<1)|pattern[8*i+6];
			  			  	      matriz[i]=(matriz[i]<<1)|pattern[8*i+7];
			  			  	      printf("\n%u",matriz[i]);
			  			  }
			  sen_2_byte_info(portlog,ADDR_DIG_0,matriz[0]);
 2002078:	00bffff4 	movhi	r2,65535
 200207c:	109f7b04 	addi	r2,r2,32236
 2002080:	1705883a 	add	r2,r2,fp
 2002084:	10c00017 	ldw	r3,0(r2)
 2002088:	d0a01403 	ldbu	r2,-32688(gp)
 200208c:	10803fcc 	andi	r2,r2,255
 2002090:	1080201c 	xori	r2,r2,128
 2002094:	10bfe004 	addi	r2,r2,-128
 2002098:	1809883a 	mov	r4,r3
 200209c:	01400044 	movi	r5,1
 20020a0:	100d883a 	mov	r6,r2
 20020a4:	2003d340 	call	2003d34 <sen_2_byte_info>
			  			  	sen_2_byte_info(portlog,ADDR_DIG_1,matriz[1]);
 20020a8:	013ffff4 	movhi	r4,65535
 20020ac:	211f7b04 	addi	r4,r4,32236
 20020b0:	2709883a 	add	r4,r4,fp
 20020b4:	20c00017 	ldw	r3,0(r4)
 20020b8:	d0a01444 	addi	r2,gp,-32687
 20020bc:	10800003 	ldbu	r2,0(r2)
 20020c0:	10803fcc 	andi	r2,r2,255
 20020c4:	1080201c 	xori	r2,r2,128
 20020c8:	10bfe004 	addi	r2,r2,-128
 20020cc:	1809883a 	mov	r4,r3
 20020d0:	01400084 	movi	r5,2
 20020d4:	100d883a 	mov	r6,r2
 20020d8:	2003d340 	call	2003d34 <sen_2_byte_info>
			  			  	sen_2_byte_info(portlog,ADDR_DIG_2,matriz[2]);
 20020dc:	017ffff4 	movhi	r5,65535
 20020e0:	295f7b04 	addi	r5,r5,32236
 20020e4:	2f0b883a 	add	r5,r5,fp
 20020e8:	28c00017 	ldw	r3,0(r5)
 20020ec:	d0a01484 	addi	r2,gp,-32686
 20020f0:	10800003 	ldbu	r2,0(r2)
 20020f4:	10803fcc 	andi	r2,r2,255
 20020f8:	1080201c 	xori	r2,r2,128
 20020fc:	10bfe004 	addi	r2,r2,-128
 2002100:	1809883a 	mov	r4,r3
 2002104:	014000c4 	movi	r5,3
 2002108:	100d883a 	mov	r6,r2
 200210c:	2003d340 	call	2003d34 <sen_2_byte_info>
			  			  	sen_2_byte_info(portlog,ADDR_DIG_3,matriz[3]);
 2002110:	01bffff4 	movhi	r6,65535
 2002114:	319f7b04 	addi	r6,r6,32236
 2002118:	370d883a 	add	r6,r6,fp
 200211c:	30c00017 	ldw	r3,0(r6)
 2002120:	d0a014c4 	addi	r2,gp,-32685
 2002124:	10800003 	ldbu	r2,0(r2)
 2002128:	10803fcc 	andi	r2,r2,255
 200212c:	1080201c 	xori	r2,r2,128
 2002130:	10bfe004 	addi	r2,r2,-128
 2002134:	1809883a 	mov	r4,r3
 2002138:	01400104 	movi	r5,4
 200213c:	100d883a 	mov	r6,r2
 2002140:	2003d340 	call	2003d34 <sen_2_byte_info>
			  			  	sen_2_byte_info(portlog,ADDR_DIG_4,matriz[4]);
 2002144:	00bffff4 	movhi	r2,65535
 2002148:	109f7b04 	addi	r2,r2,32236
 200214c:	1705883a 	add	r2,r2,fp
 2002150:	10c00017 	ldw	r3,0(r2)
 2002154:	d0a01504 	addi	r2,gp,-32684
 2002158:	10800003 	ldbu	r2,0(r2)
 200215c:	10803fcc 	andi	r2,r2,255
 2002160:	1080201c 	xori	r2,r2,128
 2002164:	10bfe004 	addi	r2,r2,-128
 2002168:	1809883a 	mov	r4,r3
 200216c:	01400144 	movi	r5,5
 2002170:	100d883a 	mov	r6,r2
 2002174:	2003d340 	call	2003d34 <sen_2_byte_info>
			  			  	sen_2_byte_info(portlog,ADDR_DIG_5,matriz[5]);
 2002178:	013ffff4 	movhi	r4,65535
 200217c:	211f7b04 	addi	r4,r4,32236
 2002180:	2709883a 	add	r4,r4,fp
 2002184:	20c00017 	ldw	r3,0(r4)
 2002188:	d0a01544 	addi	r2,gp,-32683
 200218c:	10800003 	ldbu	r2,0(r2)
 2002190:	10803fcc 	andi	r2,r2,255
 2002194:	1080201c 	xori	r2,r2,128
 2002198:	10bfe004 	addi	r2,r2,-128
 200219c:	1809883a 	mov	r4,r3
 20021a0:	01400184 	movi	r5,6
 20021a4:	100d883a 	mov	r6,r2
 20021a8:	2003d340 	call	2003d34 <sen_2_byte_info>
			  			  	sen_2_byte_info(portlog,ADDR_DIG_6,matriz[6]);
 20021ac:	017ffff4 	movhi	r5,65535
 20021b0:	295f7b04 	addi	r5,r5,32236
 20021b4:	2f0b883a 	add	r5,r5,fp
 20021b8:	28c00017 	ldw	r3,0(r5)
 20021bc:	d0a01584 	addi	r2,gp,-32682
 20021c0:	10800003 	ldbu	r2,0(r2)
 20021c4:	10803fcc 	andi	r2,r2,255
 20021c8:	1080201c 	xori	r2,r2,128
 20021cc:	10bfe004 	addi	r2,r2,-128
 20021d0:	1809883a 	mov	r4,r3
 20021d4:	014001c4 	movi	r5,7
 20021d8:	100d883a 	mov	r6,r2
 20021dc:	2003d340 	call	2003d34 <sen_2_byte_info>
			  			  	sen_2_byte_info(portlog,ADDR_DIG_7,matriz[7]);
 20021e0:	01bffff4 	movhi	r6,65535
 20021e4:	319f7b04 	addi	r6,r6,32236
 20021e8:	370d883a 	add	r6,r6,fp
 20021ec:	30c00017 	ldw	r3,0(r6)
 20021f0:	d0a015c4 	addi	r2,gp,-32681
 20021f4:	10800003 	ldbu	r2,0(r2)
 20021f8:	10803fcc 	andi	r2,r2,255
 20021fc:	1080201c 	xori	r2,r2,128
 2002200:	10bfe004 	addi	r2,r2,-128
 2002204:	1809883a 	mov	r4,r3
 2002208:	01400204 	movi	r5,8
 200220c:	100d883a 	mov	r6,r2
 2002210:	2003d340 	call	2003d34 <sen_2_byte_info>
			  printf("\nEnter row:");
 2002214:	01008074 	movhi	r4,513
 2002218:	21129c04 	addi	r4,r4,19056
 200221c:	20040c00 	call	20040c0 <printf>
			  while((c = IORD(PORT_TECLADO_BASE,0)) != 0b1111)
 2002220:	00003406 	br	20022f4 <main+0x2090>
			    {
				  if(c!=0b0011)
 2002224:	00fffff4 	movhi	r3,65535
 2002228:	18df7c04 	addi	r3,r3,32240
 200222c:	1f07883a 	add	r3,r3,fp
 2002230:	18800007 	ldb	r2,0(r3)
 2002234:	108000e0 	cmpeqi	r2,r2,3
 2002238:	10002e1e 	bne	r2,zero,20022f4 <main+0x2090>
				  {
			      if(c<3)
 200223c:	013ffff4 	movhi	r4,65535
 2002240:	211f7c04 	addi	r4,r4,32240
 2002244:	2709883a 	add	r4,r4,fp
 2002248:	20800007 	ldb	r2,0(r4)
 200224c:	108000c8 	cmpgei	r2,r2,3
 2002250:	1000091e 	bne	r2,zero,2002278 <main+0x2014>
				  {
			    	  row = c;
 2002254:	017ffff4 	movhi	r5,65535
 2002258:	295f7c04 	addi	r5,r5,32240
 200225c:	2f0b883a 	add	r5,r5,fp
 2002260:	28800007 	ldb	r2,0(r5)
 2002264:	01bffff4 	movhi	r6,65535
 2002268:	319f7404 	addi	r6,r6,32208
 200226c:	370d883a 	add	r6,r6,fp
 2002270:	30800015 	stw	r2,0(r6)
 2002274:	00001f06 	br	20022f4 <main+0x2090>
				  }
			      else if(c>=3 && c<7)
 2002278:	00fffff4 	movhi	r3,65535
 200227c:	18df7c04 	addi	r3,r3,32240
 2002280:	1f07883a 	add	r3,r3,fp
 2002284:	18800007 	ldb	r2,0(r3)
 2002288:	108000d0 	cmplti	r2,r2,3
 200228c:	1000101e 	bne	r2,zero,20022d0 <main+0x206c>
 2002290:	013ffff4 	movhi	r4,65535
 2002294:	211f7c04 	addi	r4,r4,32240
 2002298:	2709883a 	add	r4,r4,fp
 200229c:	20800007 	ldb	r2,0(r4)
 20022a0:	108001c8 	cmpgei	r2,r2,7
 20022a4:	10000a1e 	bne	r2,zero,20022d0 <main+0x206c>
			      {
			    	 row=c-1;
 20022a8:	017ffff4 	movhi	r5,65535
 20022ac:	295f7c04 	addi	r5,r5,32240
 20022b0:	2f0b883a 	add	r5,r5,fp
 20022b4:	28800007 	ldb	r2,0(r5)
 20022b8:	10bfffc4 	addi	r2,r2,-1
 20022bc:	01bffff4 	movhi	r6,65535
 20022c0:	319f7404 	addi	r6,r6,32208
 20022c4:	370d883a 	add	r6,r6,fp
 20022c8:	30800015 	stw	r2,0(r6)
 20022cc:	00000906 	br	20022f4 <main+0x2090>
			      }
			      else
			      {
			    	  row=c-2;
 20022d0:	00fffff4 	movhi	r3,65535
 20022d4:	18df7c04 	addi	r3,r3,32240
 20022d8:	1f07883a 	add	r3,r3,fp
 20022dc:	18800007 	ldb	r2,0(r3)
 20022e0:	10bfff84 	addi	r2,r2,-2
 20022e4:	013ffff4 	movhi	r4,65535
 20022e8:	211f7404 	addi	r4,r4,32208
 20022ec:	2709883a 	add	r4,r4,fp
 20022f0:	20800015 	stw	r2,0(r4)
			  			  	sen_2_byte_info(portlog,ADDR_DIG_4,matriz[4]);
			  			  	sen_2_byte_info(portlog,ADDR_DIG_5,matriz[5]);
			  			  	sen_2_byte_info(portlog,ADDR_DIG_6,matriz[6]);
			  			  	sen_2_byte_info(portlog,ADDR_DIG_7,matriz[7]);
			  printf("\nEnter row:");
			  while((c = IORD(PORT_TECLADO_BASE,0)) != 0b1111)
 20022f4:	00810034 	movhi	r2,1024
 20022f8:	10880804 	addi	r2,r2,8224
 20022fc:	10800037 	ldwio	r2,0(r2)
 2002300:	017ffff4 	movhi	r5,65535
 2002304:	295f7c04 	addi	r5,r5,32240
 2002308:	2f0b883a 	add	r5,r5,fp
 200230c:	28800005 	stb	r2,0(r5)
 2002310:	01bffff4 	movhi	r6,65535
 2002314:	319f7c04 	addi	r6,r6,32240
 2002318:	370d883a 	add	r6,r6,fp
 200231c:	30800007 	ldb	r2,0(r6)
 2002320:	108003d8 	cmpnei	r2,r2,15
 2002324:	103fbf1e 	bne	r2,zero,2002224 <main+0x1fc0>
			      {
			    	  row=c-2;
			      }
				  }
			    }
			  while((c = IORD(PORT_TECLADO_BASE,0)) != 0b0011)
 2002328:	0001883a 	nop
 200232c:	00810034 	movhi	r2,1024
 2002330:	10880804 	addi	r2,r2,8224
 2002334:	10800037 	ldwio	r2,0(r2)
 2002338:	00fffff4 	movhi	r3,65535
 200233c:	18df7c04 	addi	r3,r3,32240
 2002340:	1f07883a 	add	r3,r3,fp
 2002344:	18800005 	stb	r2,0(r3)
 2002348:	013ffff4 	movhi	r4,65535
 200234c:	211f7c04 	addi	r4,r4,32240
 2002350:	2709883a 	add	r4,r4,fp
 2002354:	20800007 	ldb	r2,0(r4)
 2002358:	108000d8 	cmpnei	r2,r2,3
 200235c:	103ff31e 	bne	r2,zero,200232c <main+0x20c8>
			  		  {
			  		  }

			  int column;
			  printf("\nEnter column:");
 2002360:	01008074 	movhi	r4,513
 2002364:	21129f04 	addi	r4,r4,19068
 2002368:	20040c00 	call	20040c0 <printf>
			  while((c = IORD(PORT_TECLADO_BASE,0)) != 0b1111)
 200236c:	00003406 	br	2002440 <main+0x21dc>
			    {
				  if(c!=0b0011)
 2002370:	017ffff4 	movhi	r5,65535
 2002374:	295f7c04 	addi	r5,r5,32240
 2002378:	2f0b883a 	add	r5,r5,fp
 200237c:	28800007 	ldb	r2,0(r5)
 2002380:	108000e0 	cmpeqi	r2,r2,3
 2002384:	10002e1e 	bne	r2,zero,2002440 <main+0x21dc>
				  {
				  if(c<3)
 2002388:	01bffff4 	movhi	r6,65535
 200238c:	319f7c04 	addi	r6,r6,32240
 2002390:	370d883a 	add	r6,r6,fp
 2002394:	30800007 	ldb	r2,0(r6)
 2002398:	108000c8 	cmpgei	r2,r2,3
 200239c:	1000091e 	bne	r2,zero,20023c4 <main+0x2160>
				  {
				  	  column = c;
 20023a0:	00fffff4 	movhi	r3,65535
 20023a4:	18df7c04 	addi	r3,r3,32240
 20023a8:	1f07883a 	add	r3,r3,fp
 20023ac:	18800007 	ldb	r2,0(r3)
 20023b0:	013ffff4 	movhi	r4,65535
 20023b4:	211f7604 	addi	r4,r4,32216
 20023b8:	2709883a 	add	r4,r4,fp
 20023bc:	20800015 	stw	r2,0(r4)
 20023c0:	00001f06 	br	2002440 <main+0x21dc>
				  }
				  else if(c>=3 && c<7)
 20023c4:	017ffff4 	movhi	r5,65535
 20023c8:	295f7c04 	addi	r5,r5,32240
 20023cc:	2f0b883a 	add	r5,r5,fp
 20023d0:	28800007 	ldb	r2,0(r5)
 20023d4:	108000d0 	cmplti	r2,r2,3
 20023d8:	1000101e 	bne	r2,zero,200241c <main+0x21b8>
 20023dc:	01bffff4 	movhi	r6,65535
 20023e0:	319f7c04 	addi	r6,r6,32240
 20023e4:	370d883a 	add	r6,r6,fp
 20023e8:	30800007 	ldb	r2,0(r6)
 20023ec:	108001c8 	cmpgei	r2,r2,7
 20023f0:	10000a1e 	bne	r2,zero,200241c <main+0x21b8>
				  {
				   	 column=c-1;
 20023f4:	00fffff4 	movhi	r3,65535
 20023f8:	18df7c04 	addi	r3,r3,32240
 20023fc:	1f07883a 	add	r3,r3,fp
 2002400:	18800007 	ldb	r2,0(r3)
 2002404:	10bfffc4 	addi	r2,r2,-1
 2002408:	013ffff4 	movhi	r4,65535
 200240c:	211f7604 	addi	r4,r4,32216
 2002410:	2709883a 	add	r4,r4,fp
 2002414:	20800015 	stw	r2,0(r4)
 2002418:	00000906 	br	2002440 <main+0x21dc>
				  }
				  else
				  {
				   	  column=c-2;
 200241c:	017ffff4 	movhi	r5,65535
 2002420:	295f7c04 	addi	r5,r5,32240
 2002424:	2f0b883a 	add	r5,r5,fp
 2002428:	28800007 	ldb	r2,0(r5)
 200242c:	10bfff84 	addi	r2,r2,-2
 2002430:	01bffff4 	movhi	r6,65535
 2002434:	319f7604 	addi	r6,r6,32216
 2002438:	370d883a 	add	r6,r6,fp
 200243c:	30800015 	stw	r2,0(r6)
			  		  {
			  		  }

			  int column;
			  printf("\nEnter column:");
			  while((c = IORD(PORT_TECLADO_BASE,0)) != 0b1111)
 2002440:	00810034 	movhi	r2,1024
 2002444:	10880804 	addi	r2,r2,8224
 2002448:	10800037 	ldwio	r2,0(r2)
 200244c:	00fffff4 	movhi	r3,65535
 2002450:	18df7c04 	addi	r3,r3,32240
 2002454:	1f07883a 	add	r3,r3,fp
 2002458:	18800005 	stb	r2,0(r3)
 200245c:	013ffff4 	movhi	r4,65535
 2002460:	211f7c04 	addi	r4,r4,32240
 2002464:	2709883a 	add	r4,r4,fp
 2002468:	20800007 	ldb	r2,0(r4)
 200246c:	108003d8 	cmpnei	r2,r2,15
 2002470:	103fbf1e 	bne	r2,zero,2002370 <main+0x210c>
				  {
				   	  column=c-2;
				  }
				  }
			    }
			  while((c = IORD(PORT_TECLADO_BASE,0)) != 0b0011)
 2002474:	0001883a 	nop
 2002478:	00810034 	movhi	r2,1024
 200247c:	10880804 	addi	r2,r2,8224
 2002480:	10800037 	ldwio	r2,0(r2)
 2002484:	017ffff4 	movhi	r5,65535
 2002488:	295f7c04 	addi	r5,r5,32240
 200248c:	2f0b883a 	add	r5,r5,fp
 2002490:	28800005 	stb	r2,0(r5)
 2002494:	01bffff4 	movhi	r6,65535
 2002498:	319f7c04 	addi	r6,r6,32240
 200249c:	370d883a 	add	r6,r6,fp
 20024a0:	30800007 	ldb	r2,0(r6)
 20024a4:	108000d8 	cmpnei	r2,r2,3
 20024a8:	103ff31e 	bne	r2,zero,2002478 <main+0x2214>
			  		  {
			  		  }
			  printf("\ncolumn");
 20024ac:	01008074 	movhi	r4,513
 20024b0:	2112a304 	addi	r4,r4,19084
 20024b4:	20040c00 	call	20040c0 <printf>


			  for(i=0;i<64;i++)
 20024b8:	d0201315 	stw	zero,-32692(gp)
 20024bc:	00004406 	br	20025d0 <main+0x236c>
			    {
			      pattern[i] = pattern[i]^moves[8*row+column][i];
 20024c0:	d0a01317 	ldw	r2,-32692(gp)
 20024c4:	d0e01317 	ldw	r3,-32692(gp)
 20024c8:	01204f14 	movui	r4,33084
 20024cc:	017ffff4 	movhi	r5,65535
 20024d0:	295f7004 	addi	r5,r5,32192
 20024d4:	2f0b883a 	add	r5,r5,fp
 20024d8:	2909883a 	add	r4,r5,r4
 20024dc:	18c7883a 	add	r3,r3,r3
 20024e0:	18c7883a 	add	r3,r3,r3
 20024e4:	20c7883a 	add	r3,r4,r3
 20024e8:	19000017 	ldw	r4,0(r3)
 20024ec:	01bffff4 	movhi	r6,65535
 20024f0:	319f7404 	addi	r6,r6,32208
 20024f4:	370d883a 	add	r6,r6,fp
 20024f8:	30c00017 	ldw	r3,0(r6)
 20024fc:	180a90fa 	slli	r5,r3,3
 2002500:	01bffff4 	movhi	r6,65535
 2002504:	319f7604 	addi	r6,r6,32216
 2002508:	370d883a 	add	r6,r6,fp
 200250c:	30c00017 	ldw	r3,0(r6)
 2002510:	28cb883a 	add	r5,r5,r3
 2002514:	d0e01317 	ldw	r3,-32692(gp)
 2002518:	280a91ba 	slli	r5,r5,6
 200251c:	28c7883a 	add	r3,r5,r3
 2002520:	18c7883a 	add	r3,r3,r3
 2002524:	18c7883a 	add	r3,r3,r3
 2002528:	017ffff4 	movhi	r5,65535
 200252c:	295f7004 	addi	r5,r5,32192
 2002530:	2f0b883a 	add	r5,r5,fp
 2002534:	28c7883a 	add	r3,r5,r3
 2002538:	18d00f04 	addi	r3,r3,16444
 200253c:	18c00017 	ldw	r3,0(r3)
 2002540:	20c6f03a 	xor	r3,r4,r3
 2002544:	01204f14 	movui	r4,33084
 2002548:	01bffff4 	movhi	r6,65535
 200254c:	319f7004 	addi	r6,r6,32192
 2002550:	370d883a 	add	r6,r6,fp
 2002554:	3109883a 	add	r4,r6,r4
 2002558:	1085883a 	add	r2,r2,r2
 200255c:	1085883a 	add	r2,r2,r2
 2002560:	2085883a 	add	r2,r4,r2
 2002564:	10c00015 	stw	r3,0(r2)
			      temp = temp||pattern[i];
 2002568:	00fffff4 	movhi	r3,65535
 200256c:	18df7204 	addi	r3,r3,32200
 2002570:	1f07883a 	add	r3,r3,fp
 2002574:	18800017 	ldw	r2,0(r3)
 2002578:	10000b1e 	bne	r2,zero,20025a8 <main+0x2344>
 200257c:	d0a01317 	ldw	r2,-32692(gp)
 2002580:	00e04f14 	movui	r3,33084
 2002584:	013ffff4 	movhi	r4,65535
 2002588:	211f7004 	addi	r4,r4,32192
 200258c:	2709883a 	add	r4,r4,fp
 2002590:	20c7883a 	add	r3,r4,r3
 2002594:	1085883a 	add	r2,r2,r2
 2002598:	1085883a 	add	r2,r2,r2
 200259c:	1885883a 	add	r2,r3,r2
 20025a0:	10800017 	ldw	r2,0(r2)
 20025a4:	10000226 	beq	r2,zero,20025b0 <main+0x234c>
 20025a8:	00800044 	movi	r2,1
 20025ac:	00000106 	br	20025b4 <main+0x2350>
 20025b0:	0005883a 	mov	r2,zero
 20025b4:	017ffff4 	movhi	r5,65535
 20025b8:	295f7204 	addi	r5,r5,32200
 20025bc:	2f0b883a 	add	r5,r5,fp
 20025c0:	28800015 	stw	r2,0(r5)
			  		  {
			  		  }
			  printf("\ncolumn");


			  for(i=0;i<64;i++)
 20025c4:	d0a01317 	ldw	r2,-32692(gp)
 20025c8:	10800044 	addi	r2,r2,1
 20025cc:	d0a01315 	stw	r2,-32692(gp)
 20025d0:	d0a01317 	ldw	r2,-32692(gp)
 20025d4:	10801010 	cmplti	r2,r2,64
 20025d8:	103fb91e 	bne	r2,zero,20024c0 <main+0x225c>
			    {
			      pattern[i] = pattern[i]^moves[8*row+column][i];
			      temp = temp||pattern[i];
			    }
			  win = 0;
 20025dc:	01bffff4 	movhi	r6,65535
 20025e0:	319f7104 	addi	r6,r6,32196
 20025e4:	370d883a 	add	r6,r6,fp
 20025e8:	30000015 	stw	zero,0(r6)
			  for(i=0;i<64;i++)
 20025ec:	d0201315 	stw	zero,-32692(gp)
 20025f0:	00001a06 	br	200265c <main+0x23f8>
			    {
			      win = win||pattern[i];
 20025f4:	00fffff4 	movhi	r3,65535
 20025f8:	18df7104 	addi	r3,r3,32196
 20025fc:	1f07883a 	add	r3,r3,fp
 2002600:	18800017 	ldw	r2,0(r3)
 2002604:	10000b1e 	bne	r2,zero,2002634 <main+0x23d0>
 2002608:	d0a01317 	ldw	r2,-32692(gp)
 200260c:	00e04f14 	movui	r3,33084
 2002610:	013ffff4 	movhi	r4,65535
 2002614:	211f7004 	addi	r4,r4,32192
 2002618:	2709883a 	add	r4,r4,fp
 200261c:	20c7883a 	add	r3,r4,r3
 2002620:	1085883a 	add	r2,r2,r2
 2002624:	1085883a 	add	r2,r2,r2
 2002628:	1885883a 	add	r2,r3,r2
 200262c:	10800017 	ldw	r2,0(r2)
 2002630:	10000226 	beq	r2,zero,200263c <main+0x23d8>
 2002634:	00800044 	movi	r2,1
 2002638:	00000106 	br	2002640 <main+0x23dc>
 200263c:	0005883a 	mov	r2,zero
 2002640:	017ffff4 	movhi	r5,65535
 2002644:	295f7104 	addi	r5,r5,32196
 2002648:	2f0b883a 	add	r5,r5,fp
 200264c:	28800015 	stw	r2,0(r5)
			    {
			      pattern[i] = pattern[i]^moves[8*row+column][i];
			      temp = temp||pattern[i];
			    }
			  win = 0;
			  for(i=0;i<64;i++)
 2002650:	d0a01317 	ldw	r2,-32692(gp)
 2002654:	10800044 	addi	r2,r2,1
 2002658:	d0a01315 	stw	r2,-32692(gp)
 200265c:	d0a01317 	ldw	r2,-32692(gp)
 2002660:	10801010 	cmplti	r2,r2,64
 2002664:	103fe31e 	bne	r2,zero,20025f4 <main+0x2390>
			    {
			      win = win||pattern[i];
			      //matriz[i/8]=(((((((((((pattern[i/8]<<1) | pattern[i/8 +2])<<1) | pattern[i/8 +3])<<1) | pattern[i/8 +4])<<1) | pattern[i/8 +5])<<1) | pattern[i/8 +6])<<1) | pattern[i/8+7];
			    }
			  for(i=0;i<8;i++)
 2002668:	d0201315 	stw	zero,-32692(gp)
 200266c:	0000bd06 	br	2002964 <main+0x2700>
			  	    {
			  	      matriz[i]=(pattern[8*i]<<1)|pattern[8*i+1];
 2002670:	d0e01317 	ldw	r3,-32692(gp)
 2002674:	d0a01317 	ldw	r2,-32692(gp)
 2002678:	100490fa 	slli	r2,r2,3
 200267c:	01204f14 	movui	r4,33084
 2002680:	01bffff4 	movhi	r6,65535
 2002684:	319f7004 	addi	r6,r6,32192
 2002688:	370d883a 	add	r6,r6,fp
 200268c:	3109883a 	add	r4,r6,r4
 2002690:	1085883a 	add	r2,r2,r2
 2002694:	1085883a 	add	r2,r2,r2
 2002698:	2085883a 	add	r2,r4,r2
 200269c:	10800017 	ldw	r2,0(r2)
 20026a0:	1085883a 	add	r2,r2,r2
 20026a4:	100b883a 	mov	r5,r2
 20026a8:	d0a01317 	ldw	r2,-32692(gp)
 20026ac:	100490fa 	slli	r2,r2,3
 20026b0:	10800044 	addi	r2,r2,1
 20026b4:	01204f14 	movui	r4,33084
 20026b8:	01bffff4 	movhi	r6,65535
 20026bc:	319f7004 	addi	r6,r6,32192
 20026c0:	370d883a 	add	r6,r6,fp
 20026c4:	3109883a 	add	r4,r6,r4
 20026c8:	1085883a 	add	r2,r2,r2
 20026cc:	1085883a 	add	r2,r2,r2
 20026d0:	2085883a 	add	r2,r4,r2
 20026d4:	10800017 	ldw	r2,0(r2)
 20026d8:	2884b03a 	or	r2,r5,r2
 20026dc:	1009883a 	mov	r4,r2
 20026e0:	d0a01404 	addi	r2,gp,-32688
 20026e4:	1885883a 	add	r2,r3,r2
 20026e8:	11000005 	stb	r4,0(r2)
			  	      matriz[i]=(matriz[i]<<1)|pattern[8*i+2];
 20026ec:	d0e01317 	ldw	r3,-32692(gp)
 20026f0:	d1201317 	ldw	r4,-32692(gp)
 20026f4:	d0a01404 	addi	r2,gp,-32688
 20026f8:	2085883a 	add	r2,r4,r2
 20026fc:	10800003 	ldbu	r2,0(r2)
 2002700:	1085883a 	add	r2,r2,r2
 2002704:	100b883a 	mov	r5,r2
 2002708:	d0a01317 	ldw	r2,-32692(gp)
 200270c:	100490fa 	slli	r2,r2,3
 2002710:	10800084 	addi	r2,r2,2
 2002714:	01204f14 	movui	r4,33084
 2002718:	01bffff4 	movhi	r6,65535
 200271c:	319f7004 	addi	r6,r6,32192
 2002720:	370d883a 	add	r6,r6,fp
 2002724:	3109883a 	add	r4,r6,r4
 2002728:	1085883a 	add	r2,r2,r2
 200272c:	1085883a 	add	r2,r2,r2
 2002730:	2085883a 	add	r2,r4,r2
 2002734:	10800017 	ldw	r2,0(r2)
 2002738:	2884b03a 	or	r2,r5,r2
 200273c:	1009883a 	mov	r4,r2
 2002740:	d0a01404 	addi	r2,gp,-32688
 2002744:	1885883a 	add	r2,r3,r2
 2002748:	11000005 	stb	r4,0(r2)
			  	      matriz[i]=(matriz[i]<<1)|pattern[8*i+3];
 200274c:	d0e01317 	ldw	r3,-32692(gp)
 2002750:	d1201317 	ldw	r4,-32692(gp)
 2002754:	d0a01404 	addi	r2,gp,-32688
 2002758:	2085883a 	add	r2,r4,r2
 200275c:	10800003 	ldbu	r2,0(r2)
 2002760:	1085883a 	add	r2,r2,r2
 2002764:	100b883a 	mov	r5,r2
 2002768:	d0a01317 	ldw	r2,-32692(gp)
 200276c:	100490fa 	slli	r2,r2,3
 2002770:	108000c4 	addi	r2,r2,3
 2002774:	01204f14 	movui	r4,33084
 2002778:	01bffff4 	movhi	r6,65535
 200277c:	319f7004 	addi	r6,r6,32192
 2002780:	370d883a 	add	r6,r6,fp
 2002784:	3109883a 	add	r4,r6,r4
 2002788:	1085883a 	add	r2,r2,r2
 200278c:	1085883a 	add	r2,r2,r2
 2002790:	2085883a 	add	r2,r4,r2
 2002794:	10800017 	ldw	r2,0(r2)
 2002798:	2884b03a 	or	r2,r5,r2
 200279c:	1009883a 	mov	r4,r2
 20027a0:	d0a01404 	addi	r2,gp,-32688
 20027a4:	1885883a 	add	r2,r3,r2
 20027a8:	11000005 	stb	r4,0(r2)
			  	      matriz[i]=(matriz[i]<<1)|pattern[8*i+4];
 20027ac:	d0e01317 	ldw	r3,-32692(gp)
 20027b0:	d1201317 	ldw	r4,-32692(gp)
 20027b4:	d0a01404 	addi	r2,gp,-32688
 20027b8:	2085883a 	add	r2,r4,r2
 20027bc:	10800003 	ldbu	r2,0(r2)
 20027c0:	1085883a 	add	r2,r2,r2
 20027c4:	100b883a 	mov	r5,r2
 20027c8:	d0a01317 	ldw	r2,-32692(gp)
 20027cc:	100490fa 	slli	r2,r2,3
 20027d0:	10800104 	addi	r2,r2,4
 20027d4:	01204f14 	movui	r4,33084
 20027d8:	01bffff4 	movhi	r6,65535
 20027dc:	319f7004 	addi	r6,r6,32192
 20027e0:	370d883a 	add	r6,r6,fp
 20027e4:	3109883a 	add	r4,r6,r4
 20027e8:	1085883a 	add	r2,r2,r2
 20027ec:	1085883a 	add	r2,r2,r2
 20027f0:	2085883a 	add	r2,r4,r2
 20027f4:	10800017 	ldw	r2,0(r2)
 20027f8:	2884b03a 	or	r2,r5,r2
 20027fc:	1009883a 	mov	r4,r2
 2002800:	d0a01404 	addi	r2,gp,-32688
 2002804:	1885883a 	add	r2,r3,r2
 2002808:	11000005 	stb	r4,0(r2)
			  	      matriz[i]=(matriz[i]<<1)|pattern[8*i+5];
 200280c:	d0e01317 	ldw	r3,-32692(gp)
 2002810:	d1201317 	ldw	r4,-32692(gp)
 2002814:	d0a01404 	addi	r2,gp,-32688
 2002818:	2085883a 	add	r2,r4,r2
 200281c:	10800003 	ldbu	r2,0(r2)
 2002820:	1085883a 	add	r2,r2,r2
 2002824:	100b883a 	mov	r5,r2
 2002828:	d0a01317 	ldw	r2,-32692(gp)
 200282c:	100490fa 	slli	r2,r2,3
 2002830:	10800144 	addi	r2,r2,5
 2002834:	01204f14 	movui	r4,33084
 2002838:	01bffff4 	movhi	r6,65535
 200283c:	319f7004 	addi	r6,r6,32192
 2002840:	370d883a 	add	r6,r6,fp
 2002844:	3109883a 	add	r4,r6,r4
 2002848:	1085883a 	add	r2,r2,r2
 200284c:	1085883a 	add	r2,r2,r2
 2002850:	2085883a 	add	r2,r4,r2
 2002854:	10800017 	ldw	r2,0(r2)
 2002858:	2884b03a 	or	r2,r5,r2
 200285c:	1009883a 	mov	r4,r2
 2002860:	d0a01404 	addi	r2,gp,-32688
 2002864:	1885883a 	add	r2,r3,r2
 2002868:	11000005 	stb	r4,0(r2)
			  	      matriz[i]=(matriz[i]<<1)|pattern[8*i+6];
 200286c:	d0e01317 	ldw	r3,-32692(gp)
 2002870:	d1201317 	ldw	r4,-32692(gp)
 2002874:	d0a01404 	addi	r2,gp,-32688
 2002878:	2085883a 	add	r2,r4,r2
 200287c:	10800003 	ldbu	r2,0(r2)
 2002880:	1085883a 	add	r2,r2,r2
 2002884:	100b883a 	mov	r5,r2
 2002888:	d0a01317 	ldw	r2,-32692(gp)
 200288c:	100490fa 	slli	r2,r2,3
 2002890:	10800184 	addi	r2,r2,6
 2002894:	01204f14 	movui	r4,33084
 2002898:	01bffff4 	movhi	r6,65535
 200289c:	319f7004 	addi	r6,r6,32192
 20028a0:	370d883a 	add	r6,r6,fp
 20028a4:	3109883a 	add	r4,r6,r4
 20028a8:	1085883a 	add	r2,r2,r2
 20028ac:	1085883a 	add	r2,r2,r2
 20028b0:	2085883a 	add	r2,r4,r2
 20028b4:	10800017 	ldw	r2,0(r2)
 20028b8:	2884b03a 	or	r2,r5,r2
 20028bc:	1009883a 	mov	r4,r2
 20028c0:	d0a01404 	addi	r2,gp,-32688
 20028c4:	1885883a 	add	r2,r3,r2
 20028c8:	11000005 	stb	r4,0(r2)
			  	      matriz[i]=(matriz[i]<<1)|pattern[8*i+7];
 20028cc:	d0e01317 	ldw	r3,-32692(gp)
 20028d0:	d1201317 	ldw	r4,-32692(gp)
 20028d4:	d0a01404 	addi	r2,gp,-32688
 20028d8:	2085883a 	add	r2,r4,r2
 20028dc:	10800003 	ldbu	r2,0(r2)
 20028e0:	1085883a 	add	r2,r2,r2
 20028e4:	100b883a 	mov	r5,r2
 20028e8:	d0a01317 	ldw	r2,-32692(gp)
 20028ec:	100490fa 	slli	r2,r2,3
 20028f0:	108001c4 	addi	r2,r2,7
 20028f4:	01204f14 	movui	r4,33084
 20028f8:	01bffff4 	movhi	r6,65535
 20028fc:	319f7004 	addi	r6,r6,32192
 2002900:	370d883a 	add	r6,r6,fp
 2002904:	3109883a 	add	r4,r6,r4
 2002908:	1085883a 	add	r2,r2,r2
 200290c:	1085883a 	add	r2,r2,r2
 2002910:	2085883a 	add	r2,r4,r2
 2002914:	10800017 	ldw	r2,0(r2)
 2002918:	2884b03a 	or	r2,r5,r2
 200291c:	1009883a 	mov	r4,r2
 2002920:	d0a01404 	addi	r2,gp,-32688
 2002924:	1885883a 	add	r2,r3,r2
 2002928:	11000005 	stb	r4,0(r2)
			  	      printf("\n%u",matriz[i]);
 200292c:	d0e01317 	ldw	r3,-32692(gp)
 2002930:	d0a01404 	addi	r2,gp,-32688
 2002934:	1885883a 	add	r2,r3,r2
 2002938:	10800003 	ldbu	r2,0(r2)
 200293c:	10803fcc 	andi	r2,r2,255
 2002940:	1080201c 	xori	r2,r2,128
 2002944:	10bfe004 	addi	r2,r2,-128
 2002948:	01008074 	movhi	r4,513
 200294c:	21128f04 	addi	r4,r4,19004
 2002950:	100b883a 	mov	r5,r2
 2002954:	20040c00 	call	20040c0 <printf>
			  for(i=0;i<64;i++)
			    {
			      win = win||pattern[i];
			      //matriz[i/8]=(((((((((((pattern[i/8]<<1) | pattern[i/8 +2])<<1) | pattern[i/8 +3])<<1) | pattern[i/8 +4])<<1) | pattern[i/8 +5])<<1) | pattern[i/8 +6])<<1) | pattern[i/8+7];
			    }
			  for(i=0;i<8;i++)
 2002958:	d0a01317 	ldw	r2,-32692(gp)
 200295c:	10800044 	addi	r2,r2,1
 2002960:	d0a01315 	stw	r2,-32692(gp)
 2002964:	d0a01317 	ldw	r2,-32692(gp)
 2002968:	10800210 	cmplti	r2,r2,8
 200296c:	103f401e 	bne	r2,zero,2002670 <main+0x240c>
			  	      matriz[i]=(matriz[i]<<1)|pattern[8*i+5];
			  	      matriz[i]=(matriz[i]<<1)|pattern[8*i+6];
			  	      matriz[i]=(matriz[i]<<1)|pattern[8*i+7];
			  	      printf("\n%u",matriz[i]);
			  }
			  sen_2_byte_info(portlog,ADDR_DIG_0,matriz[0]);
 2002970:	00bffff4 	movhi	r2,65535
 2002974:	109f7b04 	addi	r2,r2,32236
 2002978:	1705883a 	add	r2,r2,fp
 200297c:	10c00017 	ldw	r3,0(r2)
 2002980:	d0a01403 	ldbu	r2,-32688(gp)
 2002984:	10803fcc 	andi	r2,r2,255
 2002988:	1080201c 	xori	r2,r2,128
 200298c:	10bfe004 	addi	r2,r2,-128
 2002990:	1809883a 	mov	r4,r3
 2002994:	01400044 	movi	r5,1
 2002998:	100d883a 	mov	r6,r2
 200299c:	2003d340 	call	2003d34 <sen_2_byte_info>
			  	sen_2_byte_info(portlog,ADDR_DIG_1,matriz[1]);
 20029a0:	013ffff4 	movhi	r4,65535
 20029a4:	211f7b04 	addi	r4,r4,32236
 20029a8:	2709883a 	add	r4,r4,fp
 20029ac:	20c00017 	ldw	r3,0(r4)
 20029b0:	d0a01444 	addi	r2,gp,-32687
 20029b4:	10800003 	ldbu	r2,0(r2)
 20029b8:	10803fcc 	andi	r2,r2,255
 20029bc:	1080201c 	xori	r2,r2,128
 20029c0:	10bfe004 	addi	r2,r2,-128
 20029c4:	1809883a 	mov	r4,r3
 20029c8:	01400084 	movi	r5,2
 20029cc:	100d883a 	mov	r6,r2
 20029d0:	2003d340 	call	2003d34 <sen_2_byte_info>
			  	sen_2_byte_info(portlog,ADDR_DIG_2,matriz[2]);
 20029d4:	017ffff4 	movhi	r5,65535
 20029d8:	295f7b04 	addi	r5,r5,32236
 20029dc:	2f0b883a 	add	r5,r5,fp
 20029e0:	28c00017 	ldw	r3,0(r5)
 20029e4:	d0a01484 	addi	r2,gp,-32686
 20029e8:	10800003 	ldbu	r2,0(r2)
 20029ec:	10803fcc 	andi	r2,r2,255
 20029f0:	1080201c 	xori	r2,r2,128
 20029f4:	10bfe004 	addi	r2,r2,-128
 20029f8:	1809883a 	mov	r4,r3
 20029fc:	014000c4 	movi	r5,3
 2002a00:	100d883a 	mov	r6,r2
 2002a04:	2003d340 	call	2003d34 <sen_2_byte_info>
			  	sen_2_byte_info(portlog,ADDR_DIG_3,matriz[3]);
 2002a08:	01bffff4 	movhi	r6,65535
 2002a0c:	319f7b04 	addi	r6,r6,32236
 2002a10:	370d883a 	add	r6,r6,fp
 2002a14:	30c00017 	ldw	r3,0(r6)
 2002a18:	d0a014c4 	addi	r2,gp,-32685
 2002a1c:	10800003 	ldbu	r2,0(r2)
 2002a20:	10803fcc 	andi	r2,r2,255
 2002a24:	1080201c 	xori	r2,r2,128
 2002a28:	10bfe004 	addi	r2,r2,-128
 2002a2c:	1809883a 	mov	r4,r3
 2002a30:	01400104 	movi	r5,4
 2002a34:	100d883a 	mov	r6,r2
 2002a38:	2003d340 	call	2003d34 <sen_2_byte_info>
			  	sen_2_byte_info(portlog,ADDR_DIG_4,matriz[4]);
 2002a3c:	00bffff4 	movhi	r2,65535
 2002a40:	109f7b04 	addi	r2,r2,32236
 2002a44:	1705883a 	add	r2,r2,fp
 2002a48:	10c00017 	ldw	r3,0(r2)
 2002a4c:	d0a01504 	addi	r2,gp,-32684
 2002a50:	10800003 	ldbu	r2,0(r2)
 2002a54:	10803fcc 	andi	r2,r2,255
 2002a58:	1080201c 	xori	r2,r2,128
 2002a5c:	10bfe004 	addi	r2,r2,-128
 2002a60:	1809883a 	mov	r4,r3
 2002a64:	01400144 	movi	r5,5
 2002a68:	100d883a 	mov	r6,r2
 2002a6c:	2003d340 	call	2003d34 <sen_2_byte_info>
			  	sen_2_byte_info(portlog,ADDR_DIG_5,matriz[5]);
 2002a70:	013ffff4 	movhi	r4,65535
 2002a74:	211f7b04 	addi	r4,r4,32236
 2002a78:	2709883a 	add	r4,r4,fp
 2002a7c:	20c00017 	ldw	r3,0(r4)
 2002a80:	d0a01544 	addi	r2,gp,-32683
 2002a84:	10800003 	ldbu	r2,0(r2)
 2002a88:	10803fcc 	andi	r2,r2,255
 2002a8c:	1080201c 	xori	r2,r2,128
 2002a90:	10bfe004 	addi	r2,r2,-128
 2002a94:	1809883a 	mov	r4,r3
 2002a98:	01400184 	movi	r5,6
 2002a9c:	100d883a 	mov	r6,r2
 2002aa0:	2003d340 	call	2003d34 <sen_2_byte_info>
			  	sen_2_byte_info(portlog,ADDR_DIG_6,matriz[6]);
 2002aa4:	017ffff4 	movhi	r5,65535
 2002aa8:	295f7b04 	addi	r5,r5,32236
 2002aac:	2f0b883a 	add	r5,r5,fp
 2002ab0:	28c00017 	ldw	r3,0(r5)
 2002ab4:	d0a01584 	addi	r2,gp,-32682
 2002ab8:	10800003 	ldbu	r2,0(r2)
 2002abc:	10803fcc 	andi	r2,r2,255
 2002ac0:	1080201c 	xori	r2,r2,128
 2002ac4:	10bfe004 	addi	r2,r2,-128
 2002ac8:	1809883a 	mov	r4,r3
 2002acc:	014001c4 	movi	r5,7
 2002ad0:	100d883a 	mov	r6,r2
 2002ad4:	2003d340 	call	2003d34 <sen_2_byte_info>
			  	sen_2_byte_info(portlog,ADDR_DIG_7,matriz[7]);
 2002ad8:	01bffff4 	movhi	r6,65535
 2002adc:	319f7b04 	addi	r6,r6,32236
 2002ae0:	370d883a 	add	r6,r6,fp
 2002ae4:	30c00017 	ldw	r3,0(r6)
 2002ae8:	d0a015c4 	addi	r2,gp,-32681
 2002aec:	10800003 	ldbu	r2,0(r2)
 2002af0:	10803fcc 	andi	r2,r2,255
 2002af4:	1080201c 	xori	r2,r2,128
 2002af8:	10bfe004 	addi	r2,r2,-128
 2002afc:	1809883a 	mov	r4,r3
 2002b00:	01400204 	movi	r5,8
 2002b04:	100d883a 	mov	r6,r2
 2002b08:	2003d340 	call	2003d34 <sen_2_byte_info>
		      	sen_2_byte_info(portlog,ADDR_DIG_4,matriz[4]);
		      	sen_2_byte_info(portlog,ADDR_DIG_5,matriz[5]);
		      	sen_2_byte_info(portlog,ADDR_DIG_6,matriz[6]);
		      	sen_2_byte_info(portlog,ADDR_DIG_7,matriz[7]);
		      unsigned int win = 1;
		      while(win==1)
 2002b0c:	00fffff4 	movhi	r3,65535
 2002b10:	18df7104 	addi	r3,r3,32196
 2002b14:	1f07883a 	add	r3,r3,fp
 2002b18:	18800017 	ldw	r2,0(r3)
 2002b1c:	10800060 	cmpeqi	r2,r2,1
 2002b20:	103a131e 	bne	r2,zero,2001370 <main+0x110c>
			  	sen_2_byte_info(portlog,ADDR_DIG_4,matriz[4]);
			  	sen_2_byte_info(portlog,ADDR_DIG_5,matriz[5]);
			  	sen_2_byte_info(portlog,ADDR_DIG_6,matriz[6]);
			  	sen_2_byte_info(portlog,ADDR_DIG_7,matriz[7]);
			}
		      printf("\nCongrats!!! You won.");
 2002b24:	01008074 	movhi	r4,513
 2002b28:	2112a504 	addi	r4,r4,19092
 2002b2c:	20040c00 	call	20040c0 <printf>
 2002b30:	0003e906 	br	2003ad8 <main+0x3874>
		  else
		    {
		      unsigned int pattern[64];
		      unsigned int solution[64];
		      time_t t;
		      srand((unsigned) time(&t));
 2002b34:	013ffff4 	movhi	r4,65535
 2002b38:	211f7e04 	addi	r4,r4,32248
 2002b3c:	e105883a 	add	r2,fp,r4
 2002b40:	1009883a 	mov	r4,r2
 2002b44:	20044380 	call	2004438 <time>
 2002b48:	1009883a 	mov	r4,r2
 2002b4c:	20043240 	call	2004324 <srand>
		      for(i=0;i<64;i++)
 2002b50:	d0201315 	stw	zero,-32692(gp)
 2002b54:	00001806 	br	2002bb8 <main+0x2954>
			{
			  pattern[i]=rand() % 2;
 2002b58:	d4201317 	ldw	r16,-32692(gp)
 2002b5c:	200433c0 	call	200433c <rand>
 2002b60:	1007883a 	mov	r3,r2
 2002b64:	00a00034 	movhi	r2,32768
 2002b68:	10800044 	addi	r2,r2,1
 2002b6c:	1884703a 	and	r2,r3,r2
 2002b70:	1000040e 	bge	r2,zero,2002b84 <main+0x2920>
 2002b74:	10bfffc4 	addi	r2,r2,-1
 2002b78:	00ffff84 	movi	r3,-2
 2002b7c:	10c4b03a 	or	r2,r2,r3
 2002b80:	10800044 	addi	r2,r2,1
 2002b84:	1009883a 	mov	r4,r2
 2002b88:	00a00f14 	movui	r2,32828
 2002b8c:	017ffff4 	movhi	r5,65535
 2002b90:	295f7004 	addi	r5,r5,32192
 2002b94:	2f0b883a 	add	r5,r5,fp
 2002b98:	2887883a 	add	r3,r5,r2
 2002b9c:	8405883a 	add	r2,r16,r16
 2002ba0:	1085883a 	add	r2,r2,r2
 2002ba4:	1885883a 	add	r2,r3,r2
 2002ba8:	11000015 	stw	r4,0(r2)
		    {
		      unsigned int pattern[64];
		      unsigned int solution[64];
		      time_t t;
		      srand((unsigned) time(&t));
		      for(i=0;i<64;i++)
 2002bac:	d0a01317 	ldw	r2,-32692(gp)
 2002bb0:	10800044 	addi	r2,r2,1
 2002bb4:	d0a01315 	stw	r2,-32692(gp)
 2002bb8:	d0a01317 	ldw	r2,-32692(gp)
 2002bbc:	10801010 	cmplti	r2,r2,64
 2002bc0:	103fe51e 	bne	r2,zero,2002b58 <main+0x28f4>
			{
			  pattern[i]=rand() % 2;
			  //pattern[i]=1;
			}

		      for(i=0;i<64;i++)
 2002bc4:	d0201315 	stw	zero,-32692(gp)
 2002bc8:	00001106 	br	2002c10 <main+0x29ac>
			{
			  printf("\n%u",pattern[i]);
 2002bcc:	d0a01317 	ldw	r2,-32692(gp)
 2002bd0:	00e00f14 	movui	r3,32828
 2002bd4:	01bffff4 	movhi	r6,65535
 2002bd8:	319f7004 	addi	r6,r6,32192
 2002bdc:	370d883a 	add	r6,r6,fp
 2002be0:	30c7883a 	add	r3,r6,r3
 2002be4:	1085883a 	add	r2,r2,r2
 2002be8:	1085883a 	add	r2,r2,r2
 2002bec:	1885883a 	add	r2,r3,r2
 2002bf0:	10800017 	ldw	r2,0(r2)
 2002bf4:	01008074 	movhi	r4,513
 2002bf8:	21128f04 	addi	r4,r4,19004
 2002bfc:	100b883a 	mov	r5,r2
 2002c00:	20040c00 	call	20040c0 <printf>
			{
			  pattern[i]=rand() % 2;
			  //pattern[i]=1;
			}

		      for(i=0;i<64;i++)
 2002c04:	d0a01317 	ldw	r2,-32692(gp)
 2002c08:	10800044 	addi	r2,r2,1
 2002c0c:	d0a01315 	stw	r2,-32692(gp)
 2002c10:	d0a01317 	ldw	r2,-32692(gp)
 2002c14:	10801010 	cmplti	r2,r2,64
 2002c18:	103fec1e 	bne	r2,zero,2002bcc <main+0x2968>
			{
			  printf("\n%u",pattern[i]);
			  //matriz[i/8]=(((((((((((pattern[i/8]<<1) | pattern[i/8 +2])<<1) | pattern[i/8 +3])<<1) | pattern[i/8 +4])<<1) | pattern[i/8 +5])<<1) | pattern[i/8 +6])<<1) | pattern[i/8+7];

			}
		      for(i=0;i<8;i++)
 2002c1c:	d0201315 	stw	zero,-32692(gp)
 2002c20:	0000bd06 	br	2002f18 <main+0x2cb4>
		      	    {
		      	      matriz[i]=(pattern[8*i]<<1)|pattern[8*i+1];
 2002c24:	d0e01317 	ldw	r3,-32692(gp)
 2002c28:	d0a01317 	ldw	r2,-32692(gp)
 2002c2c:	100490fa 	slli	r2,r2,3
 2002c30:	01200f14 	movui	r4,32828
 2002c34:	017ffff4 	movhi	r5,65535
 2002c38:	295f7004 	addi	r5,r5,32192
 2002c3c:	2f0b883a 	add	r5,r5,fp
 2002c40:	2909883a 	add	r4,r5,r4
 2002c44:	1085883a 	add	r2,r2,r2
 2002c48:	1085883a 	add	r2,r2,r2
 2002c4c:	2085883a 	add	r2,r4,r2
 2002c50:	10800017 	ldw	r2,0(r2)
 2002c54:	1085883a 	add	r2,r2,r2
 2002c58:	100b883a 	mov	r5,r2
 2002c5c:	d0a01317 	ldw	r2,-32692(gp)
 2002c60:	100490fa 	slli	r2,r2,3
 2002c64:	10800044 	addi	r2,r2,1
 2002c68:	01200f14 	movui	r4,32828
 2002c6c:	01bffff4 	movhi	r6,65535
 2002c70:	319f7004 	addi	r6,r6,32192
 2002c74:	370d883a 	add	r6,r6,fp
 2002c78:	3109883a 	add	r4,r6,r4
 2002c7c:	1085883a 	add	r2,r2,r2
 2002c80:	1085883a 	add	r2,r2,r2
 2002c84:	2085883a 	add	r2,r4,r2
 2002c88:	10800017 	ldw	r2,0(r2)
 2002c8c:	2884b03a 	or	r2,r5,r2
 2002c90:	1009883a 	mov	r4,r2
 2002c94:	d0a01404 	addi	r2,gp,-32688
 2002c98:	1885883a 	add	r2,r3,r2
 2002c9c:	11000005 	stb	r4,0(r2)
		      	      matriz[i]=(matriz[i]<<1)|pattern[8*i+2];
 2002ca0:	d0e01317 	ldw	r3,-32692(gp)
 2002ca4:	d1201317 	ldw	r4,-32692(gp)
 2002ca8:	d0a01404 	addi	r2,gp,-32688
 2002cac:	2085883a 	add	r2,r4,r2
 2002cb0:	10800003 	ldbu	r2,0(r2)
 2002cb4:	1085883a 	add	r2,r2,r2
 2002cb8:	100b883a 	mov	r5,r2
 2002cbc:	d0a01317 	ldw	r2,-32692(gp)
 2002cc0:	100490fa 	slli	r2,r2,3
 2002cc4:	10800084 	addi	r2,r2,2
 2002cc8:	01200f14 	movui	r4,32828
 2002ccc:	01bffff4 	movhi	r6,65535
 2002cd0:	319f7004 	addi	r6,r6,32192
 2002cd4:	370d883a 	add	r6,r6,fp
 2002cd8:	3109883a 	add	r4,r6,r4
 2002cdc:	1085883a 	add	r2,r2,r2
 2002ce0:	1085883a 	add	r2,r2,r2
 2002ce4:	2085883a 	add	r2,r4,r2
 2002ce8:	10800017 	ldw	r2,0(r2)
 2002cec:	2884b03a 	or	r2,r5,r2
 2002cf0:	1009883a 	mov	r4,r2
 2002cf4:	d0a01404 	addi	r2,gp,-32688
 2002cf8:	1885883a 	add	r2,r3,r2
 2002cfc:	11000005 	stb	r4,0(r2)
		      	      matriz[i]=(matriz[i]<<1)|pattern[8*i+3];
 2002d00:	d0e01317 	ldw	r3,-32692(gp)
 2002d04:	d1201317 	ldw	r4,-32692(gp)
 2002d08:	d0a01404 	addi	r2,gp,-32688
 2002d0c:	2085883a 	add	r2,r4,r2
 2002d10:	10800003 	ldbu	r2,0(r2)
 2002d14:	1085883a 	add	r2,r2,r2
 2002d18:	100b883a 	mov	r5,r2
 2002d1c:	d0a01317 	ldw	r2,-32692(gp)
 2002d20:	100490fa 	slli	r2,r2,3
 2002d24:	108000c4 	addi	r2,r2,3
 2002d28:	01200f14 	movui	r4,32828
 2002d2c:	01bffff4 	movhi	r6,65535
 2002d30:	319f7004 	addi	r6,r6,32192
 2002d34:	370d883a 	add	r6,r6,fp
 2002d38:	3109883a 	add	r4,r6,r4
 2002d3c:	1085883a 	add	r2,r2,r2
 2002d40:	1085883a 	add	r2,r2,r2
 2002d44:	2085883a 	add	r2,r4,r2
 2002d48:	10800017 	ldw	r2,0(r2)
 2002d4c:	2884b03a 	or	r2,r5,r2
 2002d50:	1009883a 	mov	r4,r2
 2002d54:	d0a01404 	addi	r2,gp,-32688
 2002d58:	1885883a 	add	r2,r3,r2
 2002d5c:	11000005 	stb	r4,0(r2)
		      	      matriz[i]=(matriz[i]<<1)|pattern[8*i+4];
 2002d60:	d0e01317 	ldw	r3,-32692(gp)
 2002d64:	d1201317 	ldw	r4,-32692(gp)
 2002d68:	d0a01404 	addi	r2,gp,-32688
 2002d6c:	2085883a 	add	r2,r4,r2
 2002d70:	10800003 	ldbu	r2,0(r2)
 2002d74:	1085883a 	add	r2,r2,r2
 2002d78:	100b883a 	mov	r5,r2
 2002d7c:	d0a01317 	ldw	r2,-32692(gp)
 2002d80:	100490fa 	slli	r2,r2,3
 2002d84:	10800104 	addi	r2,r2,4
 2002d88:	01200f14 	movui	r4,32828
 2002d8c:	01bffff4 	movhi	r6,65535
 2002d90:	319f7004 	addi	r6,r6,32192
 2002d94:	370d883a 	add	r6,r6,fp
 2002d98:	3109883a 	add	r4,r6,r4
 2002d9c:	1085883a 	add	r2,r2,r2
 2002da0:	1085883a 	add	r2,r2,r2
 2002da4:	2085883a 	add	r2,r4,r2
 2002da8:	10800017 	ldw	r2,0(r2)
 2002dac:	2884b03a 	or	r2,r5,r2
 2002db0:	1009883a 	mov	r4,r2
 2002db4:	d0a01404 	addi	r2,gp,-32688
 2002db8:	1885883a 	add	r2,r3,r2
 2002dbc:	11000005 	stb	r4,0(r2)
		      	      matriz[i]=(matriz[i]<<1)|pattern[8*i+5];
 2002dc0:	d0e01317 	ldw	r3,-32692(gp)
 2002dc4:	d1201317 	ldw	r4,-32692(gp)
 2002dc8:	d0a01404 	addi	r2,gp,-32688
 2002dcc:	2085883a 	add	r2,r4,r2
 2002dd0:	10800003 	ldbu	r2,0(r2)
 2002dd4:	1085883a 	add	r2,r2,r2
 2002dd8:	100b883a 	mov	r5,r2
 2002ddc:	d0a01317 	ldw	r2,-32692(gp)
 2002de0:	100490fa 	slli	r2,r2,3
 2002de4:	10800144 	addi	r2,r2,5
 2002de8:	01200f14 	movui	r4,32828
 2002dec:	01bffff4 	movhi	r6,65535
 2002df0:	319f7004 	addi	r6,r6,32192
 2002df4:	370d883a 	add	r6,r6,fp
 2002df8:	3109883a 	add	r4,r6,r4
 2002dfc:	1085883a 	add	r2,r2,r2
 2002e00:	1085883a 	add	r2,r2,r2
 2002e04:	2085883a 	add	r2,r4,r2
 2002e08:	10800017 	ldw	r2,0(r2)
 2002e0c:	2884b03a 	or	r2,r5,r2
 2002e10:	1009883a 	mov	r4,r2
 2002e14:	d0a01404 	addi	r2,gp,-32688
 2002e18:	1885883a 	add	r2,r3,r2
 2002e1c:	11000005 	stb	r4,0(r2)
		      	      matriz[i]=(matriz[i]<<1)|pattern[8*i+6];
 2002e20:	d0e01317 	ldw	r3,-32692(gp)
 2002e24:	d1201317 	ldw	r4,-32692(gp)
 2002e28:	d0a01404 	addi	r2,gp,-32688
 2002e2c:	2085883a 	add	r2,r4,r2
 2002e30:	10800003 	ldbu	r2,0(r2)
 2002e34:	1085883a 	add	r2,r2,r2
 2002e38:	100b883a 	mov	r5,r2
 2002e3c:	d0a01317 	ldw	r2,-32692(gp)
 2002e40:	100490fa 	slli	r2,r2,3
 2002e44:	10800184 	addi	r2,r2,6
 2002e48:	01200f14 	movui	r4,32828
 2002e4c:	01bffff4 	movhi	r6,65535
 2002e50:	319f7004 	addi	r6,r6,32192
 2002e54:	370d883a 	add	r6,r6,fp
 2002e58:	3109883a 	add	r4,r6,r4
 2002e5c:	1085883a 	add	r2,r2,r2
 2002e60:	1085883a 	add	r2,r2,r2
 2002e64:	2085883a 	add	r2,r4,r2
 2002e68:	10800017 	ldw	r2,0(r2)
 2002e6c:	2884b03a 	or	r2,r5,r2
 2002e70:	1009883a 	mov	r4,r2
 2002e74:	d0a01404 	addi	r2,gp,-32688
 2002e78:	1885883a 	add	r2,r3,r2
 2002e7c:	11000005 	stb	r4,0(r2)
		      	      matriz[i]=(matriz[i]<<1)|pattern[8*i+7];
 2002e80:	d0e01317 	ldw	r3,-32692(gp)
 2002e84:	d1201317 	ldw	r4,-32692(gp)
 2002e88:	d0a01404 	addi	r2,gp,-32688
 2002e8c:	2085883a 	add	r2,r4,r2
 2002e90:	10800003 	ldbu	r2,0(r2)
 2002e94:	1085883a 	add	r2,r2,r2
 2002e98:	100b883a 	mov	r5,r2
 2002e9c:	d0a01317 	ldw	r2,-32692(gp)
 2002ea0:	100490fa 	slli	r2,r2,3
 2002ea4:	108001c4 	addi	r2,r2,7
 2002ea8:	01200f14 	movui	r4,32828
 2002eac:	01bffff4 	movhi	r6,65535
 2002eb0:	319f7004 	addi	r6,r6,32192
 2002eb4:	370d883a 	add	r6,r6,fp
 2002eb8:	3109883a 	add	r4,r6,r4
 2002ebc:	1085883a 	add	r2,r2,r2
 2002ec0:	1085883a 	add	r2,r2,r2
 2002ec4:	2085883a 	add	r2,r4,r2
 2002ec8:	10800017 	ldw	r2,0(r2)
 2002ecc:	2884b03a 	or	r2,r5,r2
 2002ed0:	1009883a 	mov	r4,r2
 2002ed4:	d0a01404 	addi	r2,gp,-32688
 2002ed8:	1885883a 	add	r2,r3,r2
 2002edc:	11000005 	stb	r4,0(r2)
		      	      printf("\n%u",matriz[i]);
 2002ee0:	d0e01317 	ldw	r3,-32692(gp)
 2002ee4:	d0a01404 	addi	r2,gp,-32688
 2002ee8:	1885883a 	add	r2,r3,r2
 2002eec:	10800003 	ldbu	r2,0(r2)
 2002ef0:	10803fcc 	andi	r2,r2,255
 2002ef4:	1080201c 	xori	r2,r2,128
 2002ef8:	10bfe004 	addi	r2,r2,-128
 2002efc:	01008074 	movhi	r4,513
 2002f00:	21128f04 	addi	r4,r4,19004
 2002f04:	100b883a 	mov	r5,r2
 2002f08:	20040c00 	call	20040c0 <printf>
			{
			  printf("\n%u",pattern[i]);
			  //matriz[i/8]=(((((((((((pattern[i/8]<<1) | pattern[i/8 +2])<<1) | pattern[i/8 +3])<<1) | pattern[i/8 +4])<<1) | pattern[i/8 +5])<<1) | pattern[i/8 +6])<<1) | pattern[i/8+7];

			}
		      for(i=0;i<8;i++)
 2002f0c:	d0a01317 	ldw	r2,-32692(gp)
 2002f10:	10800044 	addi	r2,r2,1
 2002f14:	d0a01315 	stw	r2,-32692(gp)
 2002f18:	d0a01317 	ldw	r2,-32692(gp)
 2002f1c:	10800210 	cmplti	r2,r2,8
 2002f20:	103f401e 	bne	r2,zero,2002c24 <main+0x29c0>
		      	      matriz[i]=(matriz[i]<<1)|pattern[8*i+5];
		      	      matriz[i]=(matriz[i]<<1)|pattern[8*i+6];
		      	      matriz[i]=(matriz[i]<<1)|pattern[8*i+7];
		      	      printf("\n%u",matriz[i]);
		      }
		      sen_2_byte_info(portlog,ADDR_DIG_0,matriz[0]);
 2002f24:	00bffff4 	movhi	r2,65535
 2002f28:	109f7b04 	addi	r2,r2,32236
 2002f2c:	1705883a 	add	r2,r2,fp
 2002f30:	10c00017 	ldw	r3,0(r2)
 2002f34:	d0a01403 	ldbu	r2,-32688(gp)
 2002f38:	10803fcc 	andi	r2,r2,255
 2002f3c:	1080201c 	xori	r2,r2,128
 2002f40:	10bfe004 	addi	r2,r2,-128
 2002f44:	1809883a 	mov	r4,r3
 2002f48:	01400044 	movi	r5,1
 2002f4c:	100d883a 	mov	r6,r2
 2002f50:	2003d340 	call	2003d34 <sen_2_byte_info>
		      	sen_2_byte_info(portlog,ADDR_DIG_1,matriz[1]);
 2002f54:	013ffff4 	movhi	r4,65535
 2002f58:	211f7b04 	addi	r4,r4,32236
 2002f5c:	2709883a 	add	r4,r4,fp
 2002f60:	20c00017 	ldw	r3,0(r4)
 2002f64:	d0a01444 	addi	r2,gp,-32687
 2002f68:	10800003 	ldbu	r2,0(r2)
 2002f6c:	10803fcc 	andi	r2,r2,255
 2002f70:	1080201c 	xori	r2,r2,128
 2002f74:	10bfe004 	addi	r2,r2,-128
 2002f78:	1809883a 	mov	r4,r3
 2002f7c:	01400084 	movi	r5,2
 2002f80:	100d883a 	mov	r6,r2
 2002f84:	2003d340 	call	2003d34 <sen_2_byte_info>
		      	sen_2_byte_info(portlog,ADDR_DIG_2,matriz[2]);
 2002f88:	017ffff4 	movhi	r5,65535
 2002f8c:	295f7b04 	addi	r5,r5,32236
 2002f90:	2f0b883a 	add	r5,r5,fp
 2002f94:	28c00017 	ldw	r3,0(r5)
 2002f98:	d0a01484 	addi	r2,gp,-32686
 2002f9c:	10800003 	ldbu	r2,0(r2)
 2002fa0:	10803fcc 	andi	r2,r2,255
 2002fa4:	1080201c 	xori	r2,r2,128
 2002fa8:	10bfe004 	addi	r2,r2,-128
 2002fac:	1809883a 	mov	r4,r3
 2002fb0:	014000c4 	movi	r5,3
 2002fb4:	100d883a 	mov	r6,r2
 2002fb8:	2003d340 	call	2003d34 <sen_2_byte_info>
		      	sen_2_byte_info(portlog,ADDR_DIG_3,matriz[3]);
 2002fbc:	01bffff4 	movhi	r6,65535
 2002fc0:	319f7b04 	addi	r6,r6,32236
 2002fc4:	370d883a 	add	r6,r6,fp
 2002fc8:	30c00017 	ldw	r3,0(r6)
 2002fcc:	d0a014c4 	addi	r2,gp,-32685
 2002fd0:	10800003 	ldbu	r2,0(r2)
 2002fd4:	10803fcc 	andi	r2,r2,255
 2002fd8:	1080201c 	xori	r2,r2,128
 2002fdc:	10bfe004 	addi	r2,r2,-128
 2002fe0:	1809883a 	mov	r4,r3
 2002fe4:	01400104 	movi	r5,4
 2002fe8:	100d883a 	mov	r6,r2
 2002fec:	2003d340 	call	2003d34 <sen_2_byte_info>
		      	sen_2_byte_info(portlog,ADDR_DIG_4,matriz[4]);
 2002ff0:	00bffff4 	movhi	r2,65535
 2002ff4:	109f7b04 	addi	r2,r2,32236
 2002ff8:	1705883a 	add	r2,r2,fp
 2002ffc:	10c00017 	ldw	r3,0(r2)
 2003000:	d0a01504 	addi	r2,gp,-32684
 2003004:	10800003 	ldbu	r2,0(r2)
 2003008:	10803fcc 	andi	r2,r2,255
 200300c:	1080201c 	xori	r2,r2,128
 2003010:	10bfe004 	addi	r2,r2,-128
 2003014:	1809883a 	mov	r4,r3
 2003018:	01400144 	movi	r5,5
 200301c:	100d883a 	mov	r6,r2
 2003020:	2003d340 	call	2003d34 <sen_2_byte_info>
		      	sen_2_byte_info(portlog,ADDR_DIG_5,matriz[5]);
 2003024:	013ffff4 	movhi	r4,65535
 2003028:	211f7b04 	addi	r4,r4,32236
 200302c:	2709883a 	add	r4,r4,fp
 2003030:	20c00017 	ldw	r3,0(r4)
 2003034:	d0a01544 	addi	r2,gp,-32683
 2003038:	10800003 	ldbu	r2,0(r2)
 200303c:	10803fcc 	andi	r2,r2,255
 2003040:	1080201c 	xori	r2,r2,128
 2003044:	10bfe004 	addi	r2,r2,-128
 2003048:	1809883a 	mov	r4,r3
 200304c:	01400184 	movi	r5,6
 2003050:	100d883a 	mov	r6,r2
 2003054:	2003d340 	call	2003d34 <sen_2_byte_info>
		      	sen_2_byte_info(portlog,ADDR_DIG_6,matriz[6]);
 2003058:	017ffff4 	movhi	r5,65535
 200305c:	295f7b04 	addi	r5,r5,32236
 2003060:	2f0b883a 	add	r5,r5,fp
 2003064:	28c00017 	ldw	r3,0(r5)
 2003068:	d0a01584 	addi	r2,gp,-32682
 200306c:	10800003 	ldbu	r2,0(r2)
 2003070:	10803fcc 	andi	r2,r2,255
 2003074:	1080201c 	xori	r2,r2,128
 2003078:	10bfe004 	addi	r2,r2,-128
 200307c:	1809883a 	mov	r4,r3
 2003080:	014001c4 	movi	r5,7
 2003084:	100d883a 	mov	r6,r2
 2003088:	2003d340 	call	2003d34 <sen_2_byte_info>
		      	sen_2_byte_info(portlog,ADDR_DIG_7,matriz[7]);
 200308c:	01bffff4 	movhi	r6,65535
 2003090:	319f7b04 	addi	r6,r6,32236
 2003094:	370d883a 	add	r6,r6,fp
 2003098:	30c00017 	ldw	r3,0(r6)
 200309c:	d0a015c4 	addi	r2,gp,-32681
 20030a0:	10800003 	ldbu	r2,0(r2)
 20030a4:	10803fcc 	andi	r2,r2,255
 20030a8:	1080201c 	xori	r2,r2,128
 20030ac:	10bfe004 	addi	r2,r2,-128
 20030b0:	1809883a 	mov	r4,r3
 20030b4:	01400204 	movi	r5,8
 20030b8:	100d883a 	mov	r6,r2
 20030bc:	2003d340 	call	2003d34 <sen_2_byte_info>
		      unsigned int win = 1;
 20030c0:	00800044 	movi	r2,1
 20030c4:	00fffff4 	movhi	r3,65535
 20030c8:	18df7704 	addi	r3,r3,32220
 20030cc:	1f07883a 	add	r3,r3,fp
 20030d0:	18800015 	stw	r2,0(r3)
		      while(win==1)
 20030d4:	00027706 	br	2003ab4 <main+0x3850>
			{
			  unsigned int temp = 0;
 20030d8:	013ffff4 	movhi	r4,65535
 20030dc:	211f7804 	addi	r4,r4,32224
 20030e0:	2709883a 	add	r4,r4,fp
 20030e4:	20000015 	stw	zero,0(r4)
			  int row;

			  printf("\nEnter row:");
 20030e8:	01008074 	movhi	r4,513
 20030ec:	21129c04 	addi	r4,r4,19056
 20030f0:	20040c00 	call	20040c0 <printf>
			  while((c = IORD(PORT_TECLADO_BASE,0)) != 0b1111)
 20030f4:	00004406 	br	2003208 <main+0x2fa4>
			    {
				  if(c!=0b0011)
 20030f8:	017ffff4 	movhi	r5,65535
 20030fc:	295f7c04 	addi	r5,r5,32240
 2003100:	2f0b883a 	add	r5,r5,fp
 2003104:	28800007 	ldb	r2,0(r5)
 2003108:	108000e0 	cmpeqi	r2,r2,3
 200310c:	10003e1e 	bne	r2,zero,2003208 <main+0x2fa4>
				  {
				  if(c<=0b0010)
 2003110:	01bffff4 	movhi	r6,65535
 2003114:	319f7c04 	addi	r6,r6,32240
 2003118:	370d883a 	add	r6,r6,fp
 200311c:	30800007 	ldb	r2,0(r6)
 2003120:	108000c8 	cmpgei	r2,r2,3
 2003124:	1000091e 	bne	r2,zero,200314c <main+0x2ee8>
				  {
				   	  row = c;
 2003128:	00fffff4 	movhi	r3,65535
 200312c:	18df7c04 	addi	r3,r3,32240
 2003130:	1f07883a 	add	r3,r3,fp
 2003134:	18800007 	ldb	r2,0(r3)
 2003138:	013ffff4 	movhi	r4,65535
 200313c:	211f7904 	addi	r4,r4,32228
 2003140:	2709883a 	add	r4,r4,fp
 2003144:	20800015 	stw	r2,0(r4)
 2003148:	00002f06 	br	2003208 <main+0x2fa4>
				  }
				  else if(c>=0b0100 && c<=0b0110)
 200314c:	017ffff4 	movhi	r5,65535
 2003150:	295f7c04 	addi	r5,r5,32240
 2003154:	2f0b883a 	add	r5,r5,fp
 2003158:	28800007 	ldb	r2,0(r5)
 200315c:	10800110 	cmplti	r2,r2,4
 2003160:	1000101e 	bne	r2,zero,20031a4 <main+0x2f40>
 2003164:	01bffff4 	movhi	r6,65535
 2003168:	319f7c04 	addi	r6,r6,32240
 200316c:	370d883a 	add	r6,r6,fp
 2003170:	30800007 	ldb	r2,0(r6)
 2003174:	108001c8 	cmpgei	r2,r2,7
 2003178:	10000a1e 	bne	r2,zero,20031a4 <main+0x2f40>
				  {
				  	 row=c-0b0001;
 200317c:	00fffff4 	movhi	r3,65535
 2003180:	18df7c04 	addi	r3,r3,32240
 2003184:	1f07883a 	add	r3,r3,fp
 2003188:	18800007 	ldb	r2,0(r3)
 200318c:	10bfffc4 	addi	r2,r2,-1
 2003190:	013ffff4 	movhi	r4,65535
 2003194:	211f7904 	addi	r4,r4,32228
 2003198:	2709883a 	add	r4,r4,fp
 200319c:	20800015 	stw	r2,0(r4)
 20031a0:	00001906 	br	2003208 <main+0x2fa4>
				  }
				  else if (c>=0b1000 && c<=0b1001)
 20031a4:	017ffff4 	movhi	r5,65535
 20031a8:	295f7c04 	addi	r5,r5,32240
 20031ac:	2f0b883a 	add	r5,r5,fp
 20031b0:	28800007 	ldb	r2,0(r5)
 20031b4:	10800210 	cmplti	r2,r2,8
 20031b8:	1000101e 	bne	r2,zero,20031fc <main+0x2f98>
 20031bc:	01bffff4 	movhi	r6,65535
 20031c0:	319f7c04 	addi	r6,r6,32240
 20031c4:	370d883a 	add	r6,r6,fp
 20031c8:	30800007 	ldb	r2,0(r6)
 20031cc:	10800288 	cmpgei	r2,r2,10
 20031d0:	10000a1e 	bne	r2,zero,20031fc <main+0x2f98>
				  {
					  row=c-0b0010;
 20031d4:	00fffff4 	movhi	r3,65535
 20031d8:	18df7c04 	addi	r3,r3,32240
 20031dc:	1f07883a 	add	r3,r3,fp
 20031e0:	18800007 	ldb	r2,0(r3)
 20031e4:	10bfff84 	addi	r2,r2,-2
 20031e8:	013ffff4 	movhi	r4,65535
 20031ec:	211f7904 	addi	r4,r4,32228
 20031f0:	2709883a 	add	r4,r4,fp
 20031f4:	20800015 	stw	r2,0(r4)
 20031f8:	00000306 	br	2003208 <main+0x2fa4>
				  }
				  else
				  {
					  printf("\nIngrese una tecla válida");
 20031fc:	01008074 	movhi	r4,513
 2003200:	2112ab04 	addi	r4,r4,19116
 2003204:	20040c00 	call	20040c0 <printf>
			{
			  unsigned int temp = 0;
			  int row;

			  printf("\nEnter row:");
			  while((c = IORD(PORT_TECLADO_BASE,0)) != 0b1111)
 2003208:	00810034 	movhi	r2,1024
 200320c:	10880804 	addi	r2,r2,8224
 2003210:	10800037 	ldwio	r2,0(r2)
 2003214:	017ffff4 	movhi	r5,65535
 2003218:	295f7c04 	addi	r5,r5,32240
 200321c:	2f0b883a 	add	r5,r5,fp
 2003220:	28800005 	stb	r2,0(r5)
 2003224:	01bffff4 	movhi	r6,65535
 2003228:	319f7c04 	addi	r6,r6,32240
 200322c:	370d883a 	add	r6,r6,fp
 2003230:	30800007 	ldb	r2,0(r6)
 2003234:	108003d8 	cmpnei	r2,r2,15
 2003238:	103faf1e 	bne	r2,zero,20030f8 <main+0x2e94>
				  {
					  printf("\nIngrese una tecla válida");
				  }
				  }
			    }
			  printf("\nrow: %u", row);
 200323c:	01008074 	movhi	r4,513
 2003240:	2112b204 	addi	r4,r4,19144
 2003244:	00bffff4 	movhi	r2,65535
 2003248:	109f7904 	addi	r2,r2,32228
 200324c:	1705883a 	add	r2,r2,fp
 2003250:	11400017 	ldw	r5,0(r2)
 2003254:	20040c00 	call	20040c0 <printf>

			  while((c = IORD(PORT_TECLADO_BASE,0)) != 0b0011)
 2003258:	0001883a 	nop
 200325c:	00810034 	movhi	r2,1024
 2003260:	10880804 	addi	r2,r2,8224
 2003264:	10800037 	ldwio	r2,0(r2)
 2003268:	00fffff4 	movhi	r3,65535
 200326c:	18df7c04 	addi	r3,r3,32240
 2003270:	1f07883a 	add	r3,r3,fp
 2003274:	18800005 	stb	r2,0(r3)
 2003278:	013ffff4 	movhi	r4,65535
 200327c:	211f7c04 	addi	r4,r4,32240
 2003280:	2709883a 	add	r4,r4,fp
 2003284:	20800007 	ldb	r2,0(r4)
 2003288:	108000d8 	cmpnei	r2,r2,3
 200328c:	103ff31e 	bne	r2,zero,200325c <main+0x2ff8>
			  		  {
			  		  }

			  int column;
			  printf("\nEnter column:");
 2003290:	01008074 	movhi	r4,513
 2003294:	21129f04 	addi	r4,r4,19068
 2003298:	20040c00 	call	20040c0 <printf>
			  while((c = IORD(PORT_TECLADO_BASE,0)) != 0b1111)
 200329c:	00004406 	br	20033b0 <main+0x314c>
			    {
				  if(c!=0b0011)
 20032a0:	017ffff4 	movhi	r5,65535
 20032a4:	295f7c04 	addi	r5,r5,32240
 20032a8:	2f0b883a 	add	r5,r5,fp
 20032ac:	28800007 	ldb	r2,0(r5)
 20032b0:	108000e0 	cmpeqi	r2,r2,3
 20032b4:	10003e1e 	bne	r2,zero,20033b0 <main+0x314c>
				   {
				  	  if(c<=0b0010)
 20032b8:	01bffff4 	movhi	r6,65535
 20032bc:	319f7c04 	addi	r6,r6,32240
 20032c0:	370d883a 	add	r6,r6,fp
 20032c4:	30800007 	ldb	r2,0(r6)
 20032c8:	108000c8 	cmpgei	r2,r2,3
 20032cc:	1000091e 	bne	r2,zero,20032f4 <main+0x3090>
				    {
				   	  column = c;
 20032d0:	00fffff4 	movhi	r3,65535
 20032d4:	18df7c04 	addi	r3,r3,32240
 20032d8:	1f07883a 	add	r3,r3,fp
 20032dc:	18800007 	ldb	r2,0(r3)
 20032e0:	013ffff4 	movhi	r4,65535
 20032e4:	211f7a04 	addi	r4,r4,32232
 20032e8:	2709883a 	add	r4,r4,fp
 20032ec:	20800015 	stw	r2,0(r4)
 20032f0:	00002f06 	br	20033b0 <main+0x314c>
				    }
				    else if(c>=0b0100 && c<=0b0110)
 20032f4:	017ffff4 	movhi	r5,65535
 20032f8:	295f7c04 	addi	r5,r5,32240
 20032fc:	2f0b883a 	add	r5,r5,fp
 2003300:	28800007 	ldb	r2,0(r5)
 2003304:	10800110 	cmplti	r2,r2,4
 2003308:	1000101e 	bne	r2,zero,200334c <main+0x30e8>
 200330c:	01bffff4 	movhi	r6,65535
 2003310:	319f7c04 	addi	r6,r6,32240
 2003314:	370d883a 	add	r6,r6,fp
 2003318:	30800007 	ldb	r2,0(r6)
 200331c:	108001c8 	cmpgei	r2,r2,7
 2003320:	10000a1e 	bne	r2,zero,200334c <main+0x30e8>
				  	 {
				  	 	column=c-0b0001;
 2003324:	00fffff4 	movhi	r3,65535
 2003328:	18df7c04 	addi	r3,r3,32240
 200332c:	1f07883a 	add	r3,r3,fp
 2003330:	18800007 	ldb	r2,0(r3)
 2003334:	10bfffc4 	addi	r2,r2,-1
 2003338:	013ffff4 	movhi	r4,65535
 200333c:	211f7a04 	addi	r4,r4,32232
 2003340:	2709883a 	add	r4,r4,fp
 2003344:	20800015 	stw	r2,0(r4)
 2003348:	00001906 	br	20033b0 <main+0x314c>
				  	  }
				  	else if (c>=0b1000 && c<=0b1001)
 200334c:	017ffff4 	movhi	r5,65535
 2003350:	295f7c04 	addi	r5,r5,32240
 2003354:	2f0b883a 	add	r5,r5,fp
 2003358:	28800007 	ldb	r2,0(r5)
 200335c:	10800210 	cmplti	r2,r2,8
 2003360:	1000101e 	bne	r2,zero,20033a4 <main+0x3140>
 2003364:	01bffff4 	movhi	r6,65535
 2003368:	319f7c04 	addi	r6,r6,32240
 200336c:	370d883a 	add	r6,r6,fp
 2003370:	30800007 	ldb	r2,0(r6)
 2003374:	10800288 	cmpgei	r2,r2,10
 2003378:	10000a1e 	bne	r2,zero,20033a4 <main+0x3140>
				  	 {
				  	  column=c-0b0010;
 200337c:	00fffff4 	movhi	r3,65535
 2003380:	18df7c04 	addi	r3,r3,32240
 2003384:	1f07883a 	add	r3,r3,fp
 2003388:	18800007 	ldb	r2,0(r3)
 200338c:	10bfff84 	addi	r2,r2,-2
 2003390:	013ffff4 	movhi	r4,65535
 2003394:	211f7a04 	addi	r4,r4,32232
 2003398:	2709883a 	add	r4,r4,fp
 200339c:	20800015 	stw	r2,0(r4)
 20033a0:	00000306 	br	20033b0 <main+0x314c>
				  	  }
				    else
				  	 {
				  	  printf("\nIngrese una tecla válida");
 20033a4:	01008074 	movhi	r4,513
 20033a8:	2112ab04 	addi	r4,r4,19116
 20033ac:	20040c00 	call	20040c0 <printf>
			  		  {
			  		  }

			  int column;
			  printf("\nEnter column:");
			  while((c = IORD(PORT_TECLADO_BASE,0)) != 0b1111)
 20033b0:	00810034 	movhi	r2,1024
 20033b4:	10880804 	addi	r2,r2,8224
 20033b8:	10800037 	ldwio	r2,0(r2)
 20033bc:	017ffff4 	movhi	r5,65535
 20033c0:	295f7c04 	addi	r5,r5,32240
 20033c4:	2f0b883a 	add	r5,r5,fp
 20033c8:	28800005 	stb	r2,0(r5)
 20033cc:	01bffff4 	movhi	r6,65535
 20033d0:	319f7c04 	addi	r6,r6,32240
 20033d4:	370d883a 	add	r6,r6,fp
 20033d8:	30800007 	ldb	r2,0(r6)
 20033dc:	108003d8 	cmpnei	r2,r2,15
 20033e0:	103faf1e 	bne	r2,zero,20032a0 <main+0x303c>
				  	 {
				  	  printf("\nIngrese una tecla válida");
				  	 }
			    }
			    }
			  printf("\ncolumn: %u",column);
 20033e4:	01008074 	movhi	r4,513
 20033e8:	2112b504 	addi	r4,r4,19156
 20033ec:	00bffff4 	movhi	r2,65535
 20033f0:	109f7a04 	addi	r2,r2,32232
 20033f4:	1705883a 	add	r2,r2,fp
 20033f8:	11400017 	ldw	r5,0(r2)
 20033fc:	20040c00 	call	20040c0 <printf>

			  while((c = IORD(PORT_TECLADO_BASE,0)) != 0b0011)
 2003400:	0001883a 	nop
 2003404:	00810034 	movhi	r2,1024
 2003408:	10880804 	addi	r2,r2,8224
 200340c:	10800037 	ldwio	r2,0(r2)
 2003410:	00fffff4 	movhi	r3,65535
 2003414:	18df7c04 	addi	r3,r3,32240
 2003418:	1f07883a 	add	r3,r3,fp
 200341c:	18800005 	stb	r2,0(r3)
 2003420:	013ffff4 	movhi	r4,65535
 2003424:	211f7c04 	addi	r4,r4,32240
 2003428:	2709883a 	add	r4,r4,fp
 200342c:	20800007 	ldb	r2,0(r4)
 2003430:	108000d8 	cmpnei	r2,r2,3
 2003434:	103ff31e 	bne	r2,zero,2003404 <main+0x31a0>
			  		  {
			  		  }
			  putchar(column);
 2003438:	008080b4 	movhi	r2,514
 200343c:	10aa6704 	addi	r2,r2,-22116
 2003440:	10800017 	ldw	r2,0(r2)
 2003444:	10800217 	ldw	r2,8(r2)
 2003448:	017ffff4 	movhi	r5,65535
 200344c:	295f7a04 	addi	r5,r5,32232
 2003450:	2f0b883a 	add	r5,r5,fp
 2003454:	29000017 	ldw	r4,0(r5)
 2003458:	100b883a 	mov	r5,r2
 200345c:	200419c0 	call	200419c <putc>

			  for( i=0;i<64;i++)
 2003460:	d0201315 	stw	zero,-32692(gp)
 2003464:	00004406 	br	2003578 <main+0x3314>
			    {
			      pattern[i] = pattern[i]^moves[8*row+column][i];
 2003468:	d0a01317 	ldw	r2,-32692(gp)
 200346c:	d0e01317 	ldw	r3,-32692(gp)
 2003470:	01200f14 	movui	r4,32828
 2003474:	01bffff4 	movhi	r6,65535
 2003478:	319f7004 	addi	r6,r6,32192
 200347c:	370d883a 	add	r6,r6,fp
 2003480:	3109883a 	add	r4,r6,r4
 2003484:	18c7883a 	add	r3,r3,r3
 2003488:	18c7883a 	add	r3,r3,r3
 200348c:	20c7883a 	add	r3,r4,r3
 2003490:	19000017 	ldw	r4,0(r3)
 2003494:	017ffff4 	movhi	r5,65535
 2003498:	295f7904 	addi	r5,r5,32228
 200349c:	2f0b883a 	add	r5,r5,fp
 20034a0:	28c00017 	ldw	r3,0(r5)
 20034a4:	180a90fa 	slli	r5,r3,3
 20034a8:	01bffff4 	movhi	r6,65535
 20034ac:	319f7a04 	addi	r6,r6,32232
 20034b0:	370d883a 	add	r6,r6,fp
 20034b4:	30c00017 	ldw	r3,0(r6)
 20034b8:	28cb883a 	add	r5,r5,r3
 20034bc:	d0e01317 	ldw	r3,-32692(gp)
 20034c0:	280a91ba 	slli	r5,r5,6
 20034c4:	28c7883a 	add	r3,r5,r3
 20034c8:	18c7883a 	add	r3,r3,r3
 20034cc:	18c7883a 	add	r3,r3,r3
 20034d0:	017ffff4 	movhi	r5,65535
 20034d4:	295f7004 	addi	r5,r5,32192
 20034d8:	2f0b883a 	add	r5,r5,fp
 20034dc:	28c7883a 	add	r3,r5,r3
 20034e0:	18d00f04 	addi	r3,r3,16444
 20034e4:	18c00017 	ldw	r3,0(r3)
 20034e8:	20c6f03a 	xor	r3,r4,r3
 20034ec:	01200f14 	movui	r4,32828
 20034f0:	01bffff4 	movhi	r6,65535
 20034f4:	319f7004 	addi	r6,r6,32192
 20034f8:	370d883a 	add	r6,r6,fp
 20034fc:	3109883a 	add	r4,r6,r4
 2003500:	1085883a 	add	r2,r2,r2
 2003504:	1085883a 	add	r2,r2,r2
 2003508:	2085883a 	add	r2,r4,r2
 200350c:	10c00015 	stw	r3,0(r2)
			      temp = temp||pattern[i];
 2003510:	00fffff4 	movhi	r3,65535
 2003514:	18df7804 	addi	r3,r3,32224
 2003518:	1f07883a 	add	r3,r3,fp
 200351c:	18800017 	ldw	r2,0(r3)
 2003520:	10000b1e 	bne	r2,zero,2003550 <main+0x32ec>
 2003524:	d0a01317 	ldw	r2,-32692(gp)
 2003528:	00e00f14 	movui	r3,32828
 200352c:	013ffff4 	movhi	r4,65535
 2003530:	211f7004 	addi	r4,r4,32192
 2003534:	2709883a 	add	r4,r4,fp
 2003538:	20c7883a 	add	r3,r4,r3
 200353c:	1085883a 	add	r2,r2,r2
 2003540:	1085883a 	add	r2,r2,r2
 2003544:	1885883a 	add	r2,r3,r2
 2003548:	10800017 	ldw	r2,0(r2)
 200354c:	10000226 	beq	r2,zero,2003558 <main+0x32f4>
 2003550:	00800044 	movi	r2,1
 2003554:	00000106 	br	200355c <main+0x32f8>
 2003558:	0005883a 	mov	r2,zero
 200355c:	017ffff4 	movhi	r5,65535
 2003560:	295f7804 	addi	r5,r5,32224
 2003564:	2f0b883a 	add	r5,r5,fp
 2003568:	28800015 	stw	r2,0(r5)
			  while((c = IORD(PORT_TECLADO_BASE,0)) != 0b0011)
			  		  {
			  		  }
			  putchar(column);

			  for( i=0;i<64;i++)
 200356c:	d0a01317 	ldw	r2,-32692(gp)
 2003570:	10800044 	addi	r2,r2,1
 2003574:	d0a01315 	stw	r2,-32692(gp)
 2003578:	d0a01317 	ldw	r2,-32692(gp)
 200357c:	10801010 	cmplti	r2,r2,64
 2003580:	103fb91e 	bne	r2,zero,2003468 <main+0x3204>
			    {
			      pattern[i] = pattern[i]^moves[8*row+column][i];
			      temp = temp||pattern[i];
			    }
			  win = 0;
 2003584:	01bffff4 	movhi	r6,65535
 2003588:	319f7704 	addi	r6,r6,32220
 200358c:	370d883a 	add	r6,r6,fp
 2003590:	30000015 	stw	zero,0(r6)
			  for(i=0;i<64;i++)
 2003594:	d0201315 	stw	zero,-32692(gp)
 2003598:	00001a06 	br	2003604 <main+0x33a0>
			    {
			      win = win||pattern[i];
 200359c:	00fffff4 	movhi	r3,65535
 20035a0:	18df7704 	addi	r3,r3,32220
 20035a4:	1f07883a 	add	r3,r3,fp
 20035a8:	18800017 	ldw	r2,0(r3)
 20035ac:	10000b1e 	bne	r2,zero,20035dc <main+0x3378>
 20035b0:	d0a01317 	ldw	r2,-32692(gp)
 20035b4:	00e00f14 	movui	r3,32828
 20035b8:	013ffff4 	movhi	r4,65535
 20035bc:	211f7004 	addi	r4,r4,32192
 20035c0:	2709883a 	add	r4,r4,fp
 20035c4:	20c7883a 	add	r3,r4,r3
 20035c8:	1085883a 	add	r2,r2,r2
 20035cc:	1085883a 	add	r2,r2,r2
 20035d0:	1885883a 	add	r2,r3,r2
 20035d4:	10800017 	ldw	r2,0(r2)
 20035d8:	10000226 	beq	r2,zero,20035e4 <main+0x3380>
 20035dc:	00800044 	movi	r2,1
 20035e0:	00000106 	br	20035e8 <main+0x3384>
 20035e4:	0005883a 	mov	r2,zero
 20035e8:	017ffff4 	movhi	r5,65535
 20035ec:	295f7704 	addi	r5,r5,32220
 20035f0:	2f0b883a 	add	r5,r5,fp
 20035f4:	28800015 	stw	r2,0(r5)
			    {
			      pattern[i] = pattern[i]^moves[8*row+column][i];
			      temp = temp||pattern[i];
			    }
			  win = 0;
			  for(i=0;i<64;i++)
 20035f8:	d0a01317 	ldw	r2,-32692(gp)
 20035fc:	10800044 	addi	r2,r2,1
 2003600:	d0a01315 	stw	r2,-32692(gp)
 2003604:	d0a01317 	ldw	r2,-32692(gp)
 2003608:	10801010 	cmplti	r2,r2,64
 200360c:	103fe31e 	bne	r2,zero,200359c <main+0x3338>
			    {
			      win = win||pattern[i];
			      //matriz[i/8]=(((((((((((pattern[i/8]<<1) | pattern[i/8 +2])<<1) | pattern[i/8 +3])<<1) | pattern[i/8 +4])<<1) | pattern[i/8 +5])<<1) | pattern[i/8 +6])<<1) | pattern[i/8+7];

			    }
			  for(i=0;i<8;i++)
 2003610:	d0201315 	stw	zero,-32692(gp)
 2003614:	0000bd06 	br	200390c <main+0x36a8>
			  	    {
			  	      matriz[i]=(pattern[8*i]<<1)|pattern[8*i+1];
 2003618:	d0e01317 	ldw	r3,-32692(gp)
 200361c:	d0a01317 	ldw	r2,-32692(gp)
 2003620:	100490fa 	slli	r2,r2,3
 2003624:	01200f14 	movui	r4,32828
 2003628:	01bffff4 	movhi	r6,65535
 200362c:	319f7004 	addi	r6,r6,32192
 2003630:	370d883a 	add	r6,r6,fp
 2003634:	3109883a 	add	r4,r6,r4
 2003638:	1085883a 	add	r2,r2,r2
 200363c:	1085883a 	add	r2,r2,r2
 2003640:	2085883a 	add	r2,r4,r2
 2003644:	10800017 	ldw	r2,0(r2)
 2003648:	1085883a 	add	r2,r2,r2
 200364c:	100b883a 	mov	r5,r2
 2003650:	d0a01317 	ldw	r2,-32692(gp)
 2003654:	100490fa 	slli	r2,r2,3
 2003658:	10800044 	addi	r2,r2,1
 200365c:	01200f14 	movui	r4,32828
 2003660:	01bffff4 	movhi	r6,65535
 2003664:	319f7004 	addi	r6,r6,32192
 2003668:	370d883a 	add	r6,r6,fp
 200366c:	3109883a 	add	r4,r6,r4
 2003670:	1085883a 	add	r2,r2,r2
 2003674:	1085883a 	add	r2,r2,r2
 2003678:	2085883a 	add	r2,r4,r2
 200367c:	10800017 	ldw	r2,0(r2)
 2003680:	2884b03a 	or	r2,r5,r2
 2003684:	1009883a 	mov	r4,r2
 2003688:	d0a01404 	addi	r2,gp,-32688
 200368c:	1885883a 	add	r2,r3,r2
 2003690:	11000005 	stb	r4,0(r2)
			  	      matriz[i]=(matriz[i]<<1)|pattern[8*i+2];
 2003694:	d0e01317 	ldw	r3,-32692(gp)
 2003698:	d1201317 	ldw	r4,-32692(gp)
 200369c:	d0a01404 	addi	r2,gp,-32688
 20036a0:	2085883a 	add	r2,r4,r2
 20036a4:	10800003 	ldbu	r2,0(r2)
 20036a8:	1085883a 	add	r2,r2,r2
 20036ac:	100b883a 	mov	r5,r2
 20036b0:	d0a01317 	ldw	r2,-32692(gp)
 20036b4:	100490fa 	slli	r2,r2,3
 20036b8:	10800084 	addi	r2,r2,2
 20036bc:	01200f14 	movui	r4,32828
 20036c0:	01bffff4 	movhi	r6,65535
 20036c4:	319f7004 	addi	r6,r6,32192
 20036c8:	370d883a 	add	r6,r6,fp
 20036cc:	3109883a 	add	r4,r6,r4
 20036d0:	1085883a 	add	r2,r2,r2
 20036d4:	1085883a 	add	r2,r2,r2
 20036d8:	2085883a 	add	r2,r4,r2
 20036dc:	10800017 	ldw	r2,0(r2)
 20036e0:	2884b03a 	or	r2,r5,r2
 20036e4:	1009883a 	mov	r4,r2
 20036e8:	d0a01404 	addi	r2,gp,-32688
 20036ec:	1885883a 	add	r2,r3,r2
 20036f0:	11000005 	stb	r4,0(r2)
			  	      matriz[i]=(matriz[i]<<1)|pattern[8*i+3];
 20036f4:	d0e01317 	ldw	r3,-32692(gp)
 20036f8:	d1201317 	ldw	r4,-32692(gp)
 20036fc:	d0a01404 	addi	r2,gp,-32688
 2003700:	2085883a 	add	r2,r4,r2
 2003704:	10800003 	ldbu	r2,0(r2)
 2003708:	1085883a 	add	r2,r2,r2
 200370c:	100b883a 	mov	r5,r2
 2003710:	d0a01317 	ldw	r2,-32692(gp)
 2003714:	100490fa 	slli	r2,r2,3
 2003718:	108000c4 	addi	r2,r2,3
 200371c:	01200f14 	movui	r4,32828
 2003720:	01bffff4 	movhi	r6,65535
 2003724:	319f7004 	addi	r6,r6,32192
 2003728:	370d883a 	add	r6,r6,fp
 200372c:	3109883a 	add	r4,r6,r4
 2003730:	1085883a 	add	r2,r2,r2
 2003734:	1085883a 	add	r2,r2,r2
 2003738:	2085883a 	add	r2,r4,r2
 200373c:	10800017 	ldw	r2,0(r2)
 2003740:	2884b03a 	or	r2,r5,r2
 2003744:	1009883a 	mov	r4,r2
 2003748:	d0a01404 	addi	r2,gp,-32688
 200374c:	1885883a 	add	r2,r3,r2
 2003750:	11000005 	stb	r4,0(r2)
			  	      matriz[i]=(matriz[i]<<1)|pattern[8*i+4];
 2003754:	d0e01317 	ldw	r3,-32692(gp)
 2003758:	d1201317 	ldw	r4,-32692(gp)
 200375c:	d0a01404 	addi	r2,gp,-32688
 2003760:	2085883a 	add	r2,r4,r2
 2003764:	10800003 	ldbu	r2,0(r2)
 2003768:	1085883a 	add	r2,r2,r2
 200376c:	100b883a 	mov	r5,r2
 2003770:	d0a01317 	ldw	r2,-32692(gp)
 2003774:	100490fa 	slli	r2,r2,3
 2003778:	10800104 	addi	r2,r2,4
 200377c:	01200f14 	movui	r4,32828
 2003780:	01bffff4 	movhi	r6,65535
 2003784:	319f7004 	addi	r6,r6,32192
 2003788:	370d883a 	add	r6,r6,fp
 200378c:	3109883a 	add	r4,r6,r4
 2003790:	1085883a 	add	r2,r2,r2
 2003794:	1085883a 	add	r2,r2,r2
 2003798:	2085883a 	add	r2,r4,r2
 200379c:	10800017 	ldw	r2,0(r2)
 20037a0:	2884b03a 	or	r2,r5,r2
 20037a4:	1009883a 	mov	r4,r2
 20037a8:	d0a01404 	addi	r2,gp,-32688
 20037ac:	1885883a 	add	r2,r3,r2
 20037b0:	11000005 	stb	r4,0(r2)
			  	      matriz[i]=(matriz[i]<<1)|pattern[8*i+5];
 20037b4:	d0e01317 	ldw	r3,-32692(gp)
 20037b8:	d1201317 	ldw	r4,-32692(gp)
 20037bc:	d0a01404 	addi	r2,gp,-32688
 20037c0:	2085883a 	add	r2,r4,r2
 20037c4:	10800003 	ldbu	r2,0(r2)
 20037c8:	1085883a 	add	r2,r2,r2
 20037cc:	100b883a 	mov	r5,r2
 20037d0:	d0a01317 	ldw	r2,-32692(gp)
 20037d4:	100490fa 	slli	r2,r2,3
 20037d8:	10800144 	addi	r2,r2,5
 20037dc:	01200f14 	movui	r4,32828
 20037e0:	01bffff4 	movhi	r6,65535
 20037e4:	319f7004 	addi	r6,r6,32192
 20037e8:	370d883a 	add	r6,r6,fp
 20037ec:	3109883a 	add	r4,r6,r4
 20037f0:	1085883a 	add	r2,r2,r2
 20037f4:	1085883a 	add	r2,r2,r2
 20037f8:	2085883a 	add	r2,r4,r2
 20037fc:	10800017 	ldw	r2,0(r2)
 2003800:	2884b03a 	or	r2,r5,r2
 2003804:	1009883a 	mov	r4,r2
 2003808:	d0a01404 	addi	r2,gp,-32688
 200380c:	1885883a 	add	r2,r3,r2
 2003810:	11000005 	stb	r4,0(r2)
			  	      matriz[i]=(matriz[i]<<1)|pattern[8*i+6];
 2003814:	d0e01317 	ldw	r3,-32692(gp)
 2003818:	d1201317 	ldw	r4,-32692(gp)
 200381c:	d0a01404 	addi	r2,gp,-32688
 2003820:	2085883a 	add	r2,r4,r2
 2003824:	10800003 	ldbu	r2,0(r2)
 2003828:	1085883a 	add	r2,r2,r2
 200382c:	100b883a 	mov	r5,r2
 2003830:	d0a01317 	ldw	r2,-32692(gp)
 2003834:	100490fa 	slli	r2,r2,3
 2003838:	10800184 	addi	r2,r2,6
 200383c:	01200f14 	movui	r4,32828
 2003840:	01bffff4 	movhi	r6,65535
 2003844:	319f7004 	addi	r6,r6,32192
 2003848:	370d883a 	add	r6,r6,fp
 200384c:	3109883a 	add	r4,r6,r4
 2003850:	1085883a 	add	r2,r2,r2
 2003854:	1085883a 	add	r2,r2,r2
 2003858:	2085883a 	add	r2,r4,r2
 200385c:	10800017 	ldw	r2,0(r2)
 2003860:	2884b03a 	or	r2,r5,r2
 2003864:	1009883a 	mov	r4,r2
 2003868:	d0a01404 	addi	r2,gp,-32688
 200386c:	1885883a 	add	r2,r3,r2
 2003870:	11000005 	stb	r4,0(r2)
			  	      matriz[i]=(matriz[i]<<1)|pattern[8*i+7];
 2003874:	d0e01317 	ldw	r3,-32692(gp)
 2003878:	d1201317 	ldw	r4,-32692(gp)
 200387c:	d0a01404 	addi	r2,gp,-32688
 2003880:	2085883a 	add	r2,r4,r2
 2003884:	10800003 	ldbu	r2,0(r2)
 2003888:	1085883a 	add	r2,r2,r2
 200388c:	100b883a 	mov	r5,r2
 2003890:	d0a01317 	ldw	r2,-32692(gp)
 2003894:	100490fa 	slli	r2,r2,3
 2003898:	108001c4 	addi	r2,r2,7
 200389c:	01200f14 	movui	r4,32828
 20038a0:	01bffff4 	movhi	r6,65535
 20038a4:	319f7004 	addi	r6,r6,32192
 20038a8:	370d883a 	add	r6,r6,fp
 20038ac:	3109883a 	add	r4,r6,r4
 20038b0:	1085883a 	add	r2,r2,r2
 20038b4:	1085883a 	add	r2,r2,r2
 20038b8:	2085883a 	add	r2,r4,r2
 20038bc:	10800017 	ldw	r2,0(r2)
 20038c0:	2884b03a 	or	r2,r5,r2
 20038c4:	1009883a 	mov	r4,r2
 20038c8:	d0a01404 	addi	r2,gp,-32688
 20038cc:	1885883a 	add	r2,r3,r2
 20038d0:	11000005 	stb	r4,0(r2)
			  	      printf("\n%u",matriz[i]);
 20038d4:	d0e01317 	ldw	r3,-32692(gp)
 20038d8:	d0a01404 	addi	r2,gp,-32688
 20038dc:	1885883a 	add	r2,r3,r2
 20038e0:	10800003 	ldbu	r2,0(r2)
 20038e4:	10803fcc 	andi	r2,r2,255
 20038e8:	1080201c 	xori	r2,r2,128
 20038ec:	10bfe004 	addi	r2,r2,-128
 20038f0:	01008074 	movhi	r4,513
 20038f4:	21128f04 	addi	r4,r4,19004
 20038f8:	100b883a 	mov	r5,r2
 20038fc:	20040c00 	call	20040c0 <printf>
			    {
			      win = win||pattern[i];
			      //matriz[i/8]=(((((((((((pattern[i/8]<<1) | pattern[i/8 +2])<<1) | pattern[i/8 +3])<<1) | pattern[i/8 +4])<<1) | pattern[i/8 +5])<<1) | pattern[i/8 +6])<<1) | pattern[i/8+7];

			    }
			  for(i=0;i<8;i++)
 2003900:	d0a01317 	ldw	r2,-32692(gp)
 2003904:	10800044 	addi	r2,r2,1
 2003908:	d0a01315 	stw	r2,-32692(gp)
 200390c:	d0a01317 	ldw	r2,-32692(gp)
 2003910:	10800210 	cmplti	r2,r2,8
 2003914:	103f401e 	bne	r2,zero,2003618 <main+0x33b4>
			  	      matriz[i]=(matriz[i]<<1)|pattern[8*i+5];
			  	      matriz[i]=(matriz[i]<<1)|pattern[8*i+6];
			  	      matriz[i]=(matriz[i]<<1)|pattern[8*i+7];
			  	      printf("\n%u",matriz[i]);
			  }
			  sen_2_byte_info(portlog,ADDR_DIG_0,matriz[0]);
 2003918:	00bffff4 	movhi	r2,65535
 200391c:	109f7b04 	addi	r2,r2,32236
 2003920:	1705883a 	add	r2,r2,fp
 2003924:	10c00017 	ldw	r3,0(r2)
 2003928:	d0a01403 	ldbu	r2,-32688(gp)
 200392c:	10803fcc 	andi	r2,r2,255
 2003930:	1080201c 	xori	r2,r2,128
 2003934:	10bfe004 	addi	r2,r2,-128
 2003938:	1809883a 	mov	r4,r3
 200393c:	01400044 	movi	r5,1
 2003940:	100d883a 	mov	r6,r2
 2003944:	2003d340 	call	2003d34 <sen_2_byte_info>
			  	sen_2_byte_info(portlog,ADDR_DIG_1,matriz[1]);
 2003948:	013ffff4 	movhi	r4,65535
 200394c:	211f7b04 	addi	r4,r4,32236
 2003950:	2709883a 	add	r4,r4,fp
 2003954:	20c00017 	ldw	r3,0(r4)
 2003958:	d0a01444 	addi	r2,gp,-32687
 200395c:	10800003 	ldbu	r2,0(r2)
 2003960:	10803fcc 	andi	r2,r2,255
 2003964:	1080201c 	xori	r2,r2,128
 2003968:	10bfe004 	addi	r2,r2,-128
 200396c:	1809883a 	mov	r4,r3
 2003970:	01400084 	movi	r5,2
 2003974:	100d883a 	mov	r6,r2
 2003978:	2003d340 	call	2003d34 <sen_2_byte_info>
			  	sen_2_byte_info(portlog,ADDR_DIG_2,matriz[2]);
 200397c:	017ffff4 	movhi	r5,65535
 2003980:	295f7b04 	addi	r5,r5,32236
 2003984:	2f0b883a 	add	r5,r5,fp
 2003988:	28c00017 	ldw	r3,0(r5)
 200398c:	d0a01484 	addi	r2,gp,-32686
 2003990:	10800003 	ldbu	r2,0(r2)
 2003994:	10803fcc 	andi	r2,r2,255
 2003998:	1080201c 	xori	r2,r2,128
 200399c:	10bfe004 	addi	r2,r2,-128
 20039a0:	1809883a 	mov	r4,r3
 20039a4:	014000c4 	movi	r5,3
 20039a8:	100d883a 	mov	r6,r2
 20039ac:	2003d340 	call	2003d34 <sen_2_byte_info>
			  	sen_2_byte_info(portlog,ADDR_DIG_3,matriz[3]);
 20039b0:	01bffff4 	movhi	r6,65535
 20039b4:	319f7b04 	addi	r6,r6,32236
 20039b8:	370d883a 	add	r6,r6,fp
 20039bc:	30c00017 	ldw	r3,0(r6)
 20039c0:	d0a014c4 	addi	r2,gp,-32685
 20039c4:	10800003 	ldbu	r2,0(r2)
 20039c8:	10803fcc 	andi	r2,r2,255
 20039cc:	1080201c 	xori	r2,r2,128
 20039d0:	10bfe004 	addi	r2,r2,-128
 20039d4:	1809883a 	mov	r4,r3
 20039d8:	01400104 	movi	r5,4
 20039dc:	100d883a 	mov	r6,r2
 20039e0:	2003d340 	call	2003d34 <sen_2_byte_info>
			  	sen_2_byte_info(portlog,ADDR_DIG_4,matriz[4]);
 20039e4:	00bffff4 	movhi	r2,65535
 20039e8:	109f7b04 	addi	r2,r2,32236
 20039ec:	1705883a 	add	r2,r2,fp
 20039f0:	10c00017 	ldw	r3,0(r2)
 20039f4:	d0a01504 	addi	r2,gp,-32684
 20039f8:	10800003 	ldbu	r2,0(r2)
 20039fc:	10803fcc 	andi	r2,r2,255
 2003a00:	1080201c 	xori	r2,r2,128
 2003a04:	10bfe004 	addi	r2,r2,-128
 2003a08:	1809883a 	mov	r4,r3
 2003a0c:	01400144 	movi	r5,5
 2003a10:	100d883a 	mov	r6,r2
 2003a14:	2003d340 	call	2003d34 <sen_2_byte_info>
			  	sen_2_byte_info(portlog,ADDR_DIG_5,matriz[5]);
 2003a18:	013ffff4 	movhi	r4,65535
 2003a1c:	211f7b04 	addi	r4,r4,32236
 2003a20:	2709883a 	add	r4,r4,fp
 2003a24:	20c00017 	ldw	r3,0(r4)
 2003a28:	d0a01544 	addi	r2,gp,-32683
 2003a2c:	10800003 	ldbu	r2,0(r2)
 2003a30:	10803fcc 	andi	r2,r2,255
 2003a34:	1080201c 	xori	r2,r2,128
 2003a38:	10bfe004 	addi	r2,r2,-128
 2003a3c:	1809883a 	mov	r4,r3
 2003a40:	01400184 	movi	r5,6
 2003a44:	100d883a 	mov	r6,r2
 2003a48:	2003d340 	call	2003d34 <sen_2_byte_info>
			  	sen_2_byte_info(portlog,ADDR_DIG_6,matriz[6]);
 2003a4c:	017ffff4 	movhi	r5,65535
 2003a50:	295f7b04 	addi	r5,r5,32236
 2003a54:	2f0b883a 	add	r5,r5,fp
 2003a58:	28c00017 	ldw	r3,0(r5)
 2003a5c:	d0a01584 	addi	r2,gp,-32682
 2003a60:	10800003 	ldbu	r2,0(r2)
 2003a64:	10803fcc 	andi	r2,r2,255
 2003a68:	1080201c 	xori	r2,r2,128
 2003a6c:	10bfe004 	addi	r2,r2,-128
 2003a70:	1809883a 	mov	r4,r3
 2003a74:	014001c4 	movi	r5,7
 2003a78:	100d883a 	mov	r6,r2
 2003a7c:	2003d340 	call	2003d34 <sen_2_byte_info>
			  	sen_2_byte_info(portlog,ADDR_DIG_7,matriz[7]);
 2003a80:	01bffff4 	movhi	r6,65535
 2003a84:	319f7b04 	addi	r6,r6,32236
 2003a88:	370d883a 	add	r6,r6,fp
 2003a8c:	30c00017 	ldw	r3,0(r6)
 2003a90:	d0a015c4 	addi	r2,gp,-32681
 2003a94:	10800003 	ldbu	r2,0(r2)
 2003a98:	10803fcc 	andi	r2,r2,255
 2003a9c:	1080201c 	xori	r2,r2,128
 2003aa0:	10bfe004 	addi	r2,r2,-128
 2003aa4:	1809883a 	mov	r4,r3
 2003aa8:	01400204 	movi	r5,8
 2003aac:	100d883a 	mov	r6,r2
 2003ab0:	2003d340 	call	2003d34 <sen_2_byte_info>
		      	sen_2_byte_info(portlog,ADDR_DIG_4,matriz[4]);
		      	sen_2_byte_info(portlog,ADDR_DIG_5,matriz[5]);
		      	sen_2_byte_info(portlog,ADDR_DIG_6,matriz[6]);
		      	sen_2_byte_info(portlog,ADDR_DIG_7,matriz[7]);
		      unsigned int win = 1;
		      while(win==1)
 2003ab4:	00fffff4 	movhi	r3,65535
 2003ab8:	18df7704 	addi	r3,r3,32220
 2003abc:	1f07883a 	add	r3,r3,fp
 2003ac0:	18800017 	ldw	r2,0(r3)
 2003ac4:	10800060 	cmpeqi	r2,r2,1
 2003ac8:	103d831e 	bne	r2,zero,20030d8 <main+0x2e74>
			  	sen_2_byte_info(portlog,ADDR_DIG_5,matriz[5]);
			  	sen_2_byte_info(portlog,ADDR_DIG_6,matriz[6]);
			  	sen_2_byte_info(portlog,ADDR_DIG_7,matriz[7]);

			}
		      printf("\nCongrats!!! You won.");
 2003acc:	01008074 	movhi	r4,513
 2003ad0:	2112a504 	addi	r4,r4,19092
 2003ad4:	20040c00 	call	20040c0 <printf>





	}
 2003ad8:	0031f506 	br	20002b0 <main+0x4c>

02003adc <OutputHigh_Din>:
//adress: Direccion de escritura para configuracion o dato 8 bits
// data:  Informacion a enviar para la direccion (adress) seleccionda 8 bits


int OutputHigh_Din(int Portlog) // Salida en alto por el pin DIN enmascarado en  los 32 pines del GPIO
{
 2003adc:	defffe04 	addi	sp,sp,-8
 2003ae0:	df000115 	stw	fp,4(sp)
 2003ae4:	df000104 	addi	fp,sp,4
 2003ae8:	e13fff15 	stw	r4,-4(fp)
Portlog = Portlog | (1<<PIN_DIN_IDX);
 2003aec:	e0bfff17 	ldw	r2,-4(fp)
 2003af0:	10800114 	ori	r2,r2,4
 2003af4:	e0bfff15 	stw	r2,-4(fp)

IOWR(PARALLEL_PORT_0_BASE, ALT_UP_PARALLEL_PORT_DATA, Portlog); // funcion de la libreria io.h que permite escribir en la direccion del GPIO (PARALLEL_PORT_0_BASE), la informacion Portlog, ALT_UP_PARALLEL_PORT_DATA es parametro de dicha libreria.
 2003af8:	00810034 	movhi	r2,1024
 2003afc:	10881804 	addi	r2,r2,8288
 2003b00:	e0ffff17 	ldw	r3,-4(fp)
 2003b04:	10c00035 	stwio	r3,0(r2)
return (Portlog);
 2003b08:	e0bfff17 	ldw	r2,-4(fp)
}
 2003b0c:	e037883a 	mov	sp,fp
 2003b10:	df000017 	ldw	fp,0(sp)
 2003b14:	dec00104 	addi	sp,sp,4
 2003b18:	f800283a 	ret

02003b1c <Outputlow_Din>:


int Outputlow_Din(int Portlog)// Salida en bajo por el pin DIN enmascarado en  los 32 pines del GPIO
{
 2003b1c:	defffe04 	addi	sp,sp,-8
 2003b20:	df000115 	stw	fp,4(sp)
 2003b24:	df000104 	addi	fp,sp,4
 2003b28:	e13fff15 	stw	r4,-4(fp)
Portlog = Portlog & ~(1<<PIN_DIN_IDX);
 2003b2c:	e0ffff17 	ldw	r3,-4(fp)
 2003b30:	00bffec4 	movi	r2,-5
 2003b34:	1884703a 	and	r2,r3,r2
 2003b38:	e0bfff15 	stw	r2,-4(fp)

IOWR(PARALLEL_PORT_0_BASE, ALT_UP_PARALLEL_PORT_DATA, Portlog);
 2003b3c:	00810034 	movhi	r2,1024
 2003b40:	10881804 	addi	r2,r2,8288
 2003b44:	e0ffff17 	ldw	r3,-4(fp)
 2003b48:	10c00035 	stwio	r3,0(r2)
return (Portlog);
 2003b4c:	e0bfff17 	ldw	r2,-4(fp)
}
 2003b50:	e037883a 	mov	sp,fp
 2003b54:	df000017 	ldw	fp,0(sp)
 2003b58:	dec00104 	addi	sp,sp,4
 2003b5c:	f800283a 	ret

02003b60 <Outputlow_clk>:



int Outputlow_clk(int Portlog)
{
 2003b60:	defffe04 	addi	sp,sp,-8
 2003b64:	df000115 	stw	fp,4(sp)
 2003b68:	df000104 	addi	fp,sp,4
 2003b6c:	e13fff15 	stw	r4,-4(fp)
Portlog = Portlog & ~(1<<PIN_CLK_IDX);
 2003b70:	e0ffff17 	ldw	r3,-4(fp)
 2003b74:	00bfff84 	movi	r2,-2
 2003b78:	1884703a 	and	r2,r3,r2
 2003b7c:	e0bfff15 	stw	r2,-4(fp)

IOWR(PARALLEL_PORT_0_BASE, ALT_UP_PARALLEL_PORT_DATA, Portlog);
 2003b80:	00810034 	movhi	r2,1024
 2003b84:	10881804 	addi	r2,r2,8288
 2003b88:	e0ffff17 	ldw	r3,-4(fp)
 2003b8c:	10c00035 	stwio	r3,0(r2)
return (Portlog);
 2003b90:	e0bfff17 	ldw	r2,-4(fp)
}
 2003b94:	e037883a 	mov	sp,fp
 2003b98:	df000017 	ldw	fp,0(sp)
 2003b9c:	dec00104 	addi	sp,sp,4
 2003ba0:	f800283a 	ret

02003ba4 <OutputHigh_clk>:


int OutputHigh_clk(int Portlog)
{
 2003ba4:	defffe04 	addi	sp,sp,-8
 2003ba8:	df000115 	stw	fp,4(sp)
 2003bac:	df000104 	addi	fp,sp,4
 2003bb0:	e13fff15 	stw	r4,-4(fp)
Portlog = Portlog | (1<<PIN_CLK_IDX);
 2003bb4:	e0bfff17 	ldw	r2,-4(fp)
 2003bb8:	10800054 	ori	r2,r2,1
 2003bbc:	e0bfff15 	stw	r2,-4(fp)

IOWR(PARALLEL_PORT_0_BASE, ALT_UP_PARALLEL_PORT_DATA, Portlog);
 2003bc0:	00810034 	movhi	r2,1024
 2003bc4:	10881804 	addi	r2,r2,8288
 2003bc8:	e0ffff17 	ldw	r3,-4(fp)
 2003bcc:	10c00035 	stwio	r3,0(r2)
return (Portlog);
 2003bd0:	e0bfff17 	ldw	r2,-4(fp)
}
 2003bd4:	e037883a 	mov	sp,fp
 2003bd8:	df000017 	ldw	fp,0(sp)
 2003bdc:	dec00104 	addi	sp,sp,4
 2003be0:	f800283a 	ret

02003be4 <Outputlow_cs>:


int Outputlow_cs(int Portlog)
{
 2003be4:	defffe04 	addi	sp,sp,-8
 2003be8:	df000115 	stw	fp,4(sp)
 2003bec:	df000104 	addi	fp,sp,4
 2003bf0:	e13fff15 	stw	r4,-4(fp)
Portlog = Portlog & ~(1<<PIN_CS_IDX);
 2003bf4:	e0ffff17 	ldw	r3,-4(fp)
 2003bf8:	00bfff44 	movi	r2,-3
 2003bfc:	1884703a 	and	r2,r3,r2
 2003c00:	e0bfff15 	stw	r2,-4(fp)

IOWR(PARALLEL_PORT_0_BASE, ALT_UP_PARALLEL_PORT_DATA, Portlog);
 2003c04:	00810034 	movhi	r2,1024
 2003c08:	10881804 	addi	r2,r2,8288
 2003c0c:	e0ffff17 	ldw	r3,-4(fp)
 2003c10:	10c00035 	stwio	r3,0(r2)

return (Portlog);
 2003c14:	e0bfff17 	ldw	r2,-4(fp)
}
 2003c18:	e037883a 	mov	sp,fp
 2003c1c:	df000017 	ldw	fp,0(sp)
 2003c20:	dec00104 	addi	sp,sp,4
 2003c24:	f800283a 	ret

02003c28 <OutputHigh_cs>:
int OutputHigh_cs(int Portlog)
{
 2003c28:	defffe04 	addi	sp,sp,-8
 2003c2c:	df000115 	stw	fp,4(sp)
 2003c30:	df000104 	addi	fp,sp,4
 2003c34:	e13fff15 	stw	r4,-4(fp)
Portlog = Portlog | (1<<PIN_CS_IDX);
 2003c38:	e0bfff17 	ldw	r2,-4(fp)
 2003c3c:	10800094 	ori	r2,r2,2
 2003c40:	e0bfff15 	stw	r2,-4(fp)

IOWR(PARALLEL_PORT_0_BASE, ALT_UP_PARALLEL_PORT_DATA, Portlog);
 2003c44:	00810034 	movhi	r2,1024
 2003c48:	10881804 	addi	r2,r2,8288
 2003c4c:	e0ffff17 	ldw	r3,-4(fp)
 2003c50:	10c00035 	stwio	r3,0(r2)

return (Portlog);
 2003c54:	e0bfff17 	ldw	r2,-4(fp)
}
 2003c58:	e037883a 	mov	sp,fp
 2003c5c:	df000017 	ldw	fp,0(sp)
 2003c60:	dec00104 	addi	sp,sp,4
 2003c64:	f800283a 	ret

02003c68 <max7219_int>:



int max7219_int (int datalog) //Condiciones iniciales para empezar comunicacion.
{
 2003c68:	defffd04 	addi	sp,sp,-12
 2003c6c:	dfc00215 	stw	ra,8(sp)
 2003c70:	df000115 	stw	fp,4(sp)
 2003c74:	df000104 	addi	fp,sp,4
 2003c78:	e13fff15 	stw	r4,-4(fp)
datalog= Outputlow_clk(datalog);
 2003c7c:	e13fff17 	ldw	r4,-4(fp)
 2003c80:	2003b600 	call	2003b60 <Outputlow_clk>
 2003c84:	e0bfff15 	stw	r2,-4(fp)
datalog= Outputlow_Din(datalog);
 2003c88:	e13fff17 	ldw	r4,-4(fp)
 2003c8c:	2003b1c0 	call	2003b1c <Outputlow_Din>
 2003c90:	e0bfff15 	stw	r2,-4(fp)
datalog= OutputHigh_cs(datalog);
 2003c94:	e13fff17 	ldw	r4,-4(fp)
 2003c98:	2003c280 	call	2003c28 <OutputHigh_cs>
 2003c9c:	e0bfff15 	stw	r2,-4(fp)
return (datalog);
 2003ca0:	e0bfff17 	ldw	r2,-4(fp)
}
 2003ca4:	e037883a 	mov	sp,fp
 2003ca8:	dfc00117 	ldw	ra,4(sp)
 2003cac:	df000017 	ldw	fp,0(sp)
 2003cb0:	dec00204 	addi	sp,sp,8
 2003cb4:	f800283a 	ret

02003cb8 <max7219_senbit>:

int max7219_senbit (int portlog,char bitvalue) //Envio de informacion por pin DIN
{
 2003cb8:	defffc04 	addi	sp,sp,-16
 2003cbc:	dfc00315 	stw	ra,12(sp)
 2003cc0:	df000215 	stw	fp,8(sp)
 2003cc4:	df000204 	addi	fp,sp,8
 2003cc8:	e13ffe15 	stw	r4,-8(fp)
 2003ccc:	2805883a 	mov	r2,r5
 2003cd0:	e0bfff05 	stb	r2,-4(fp)
if(bitvalue==1)
 2003cd4:	e0bfff07 	ldb	r2,-4(fp)
 2003cd8:	10800058 	cmpnei	r2,r2,1
 2003cdc:	1000041e 	bne	r2,zero,2003cf0 <max7219_senbit+0x38>
	{
	portlog=OutputHigh_Din(portlog);
 2003ce0:	e13ffe17 	ldw	r4,-8(fp)
 2003ce4:	2003adc0 	call	2003adc <OutputHigh_Din>
 2003ce8:	e0bffe15 	stw	r2,-8(fp)
 2003cec:	00000306 	br	2003cfc <max7219_senbit+0x44>
	}
else
{
	portlog=Outputlow_Din(portlog);
 2003cf0:	e13ffe17 	ldw	r4,-8(fp)
 2003cf4:	2003b1c0 	call	2003b1c <Outputlow_Din>
 2003cf8:	e0bffe15 	stw	r2,-8(fp)
}
	usleep(1);
 2003cfc:	01000044 	movi	r4,1
 2003d00:	20116680 	call	2011668 <usleep>
	OutputHigh_clk(portlog); // Comportamiento de señal de Clock que determina el envio de informacion (1 bit).
 2003d04:	e13ffe17 	ldw	r4,-8(fp)
 2003d08:	2003ba40 	call	2003ba4 <OutputHigh_clk>
	usleep(1);
 2003d0c:	01000044 	movi	r4,1
 2003d10:	20116680 	call	2011668 <usleep>
	Outputlow_clk(portlog);
 2003d14:	e13ffe17 	ldw	r4,-8(fp)
 2003d18:	2003b600 	call	2003b60 <Outputlow_clk>

	return portlog;
 2003d1c:	e0bffe17 	ldw	r2,-8(fp)
}
 2003d20:	e037883a 	mov	sp,fp
 2003d24:	dfc00117 	ldw	ra,4(sp)
 2003d28:	df000017 	ldw	fp,0(sp)
 2003d2c:	dec00204 	addi	sp,sp,8
 2003d30:	f800283a 	ret

02003d34 <sen_2_byte_info>:

int  sen_2_byte_info(int portlog, char address, char data)//Envio de palabra de 16 bits, en la cual se encuentra la direccion y dato correspondiente
{
 2003d34:	defffa04 	addi	sp,sp,-24
 2003d38:	dfc00515 	stw	ra,20(sp)
 2003d3c:	df000415 	stw	fp,16(sp)
 2003d40:	df000404 	addi	fp,sp,16
 2003d44:	e13ffd15 	stw	r4,-12(fp)
 2003d48:	2807883a 	mov	r3,r5
 2003d4c:	3005883a 	mov	r2,r6
 2003d50:	e0fffe05 	stb	r3,-8(fp)
 2003d54:	e0bfff05 	stb	r2,-4(fp)
	char i;
	Outputlow_cs(portlog);
 2003d58:	e13ffd17 	ldw	r4,-12(fp)
 2003d5c:	2003be40 	call	2003be4 <Outputlow_cs>

	for (i=0;i<8;i++)
 2003d60:	e03ffc05 	stb	zero,-16(fp)
 2003d64:	00001106 	br	2003dac <sen_2_byte_info+0x78>
	{
		if ((address & (1<<(7-i))) != 0)
 2003d68:	e0fffe07 	ldb	r3,-8(fp)
 2003d6c:	e0bffc07 	ldb	r2,-16(fp)
 2003d70:	010001c4 	movi	r4,7
 2003d74:	2085c83a 	sub	r2,r4,r2
 2003d78:	1885d83a 	sra	r2,r3,r2
 2003d7c:	1080004c 	andi	r2,r2,1
 2003d80:	10000426 	beq	r2,zero,2003d94 <sen_2_byte_info+0x60>
		{
			max7219_senbit(portlog,1);
 2003d84:	e13ffd17 	ldw	r4,-12(fp)
 2003d88:	01400044 	movi	r5,1
 2003d8c:	2003cb80 	call	2003cb8 <max7219_senbit>
 2003d90:	00000306 	br	2003da0 <sen_2_byte_info+0x6c>
		}
		else
		{
			max7219_senbit(portlog,0);
 2003d94:	e13ffd17 	ldw	r4,-12(fp)
 2003d98:	000b883a 	mov	r5,zero
 2003d9c:	2003cb80 	call	2003cb8 <max7219_senbit>
int  sen_2_byte_info(int portlog, char address, char data)//Envio de palabra de 16 bits, en la cual se encuentra la direccion y dato correspondiente
{
	char i;
	Outputlow_cs(portlog);

	for (i=0;i<8;i++)
 2003da0:	e0bffc03 	ldbu	r2,-16(fp)
 2003da4:	10800044 	addi	r2,r2,1
 2003da8:	e0bffc05 	stb	r2,-16(fp)
 2003dac:	e0bffc07 	ldb	r2,-16(fp)
 2003db0:	10800210 	cmplti	r2,r2,8
 2003db4:	103fec1e 	bne	r2,zero,2003d68 <sen_2_byte_info+0x34>
		else
		{
			max7219_senbit(portlog,0);
		}
	}
	for (i=0;i<8;i++)
 2003db8:	e03ffc05 	stb	zero,-16(fp)
 2003dbc:	00001106 	br	2003e04 <sen_2_byte_info+0xd0>
		{
			if ((data & (1<<(7-i))) != 0)
 2003dc0:	e0ffff07 	ldb	r3,-4(fp)
 2003dc4:	e0bffc07 	ldb	r2,-16(fp)
 2003dc8:	010001c4 	movi	r4,7
 2003dcc:	2085c83a 	sub	r2,r4,r2
 2003dd0:	1885d83a 	sra	r2,r3,r2
 2003dd4:	1080004c 	andi	r2,r2,1
 2003dd8:	10000426 	beq	r2,zero,2003dec <sen_2_byte_info+0xb8>
			{
				max7219_senbit(portlog,1);
 2003ddc:	e13ffd17 	ldw	r4,-12(fp)
 2003de0:	01400044 	movi	r5,1
 2003de4:	2003cb80 	call	2003cb8 <max7219_senbit>
 2003de8:	00000306 	br	2003df8 <sen_2_byte_info+0xc4>
			}
			else
			{
				max7219_senbit(portlog,0);
 2003dec:	e13ffd17 	ldw	r4,-12(fp)
 2003df0:	000b883a 	mov	r5,zero
 2003df4:	2003cb80 	call	2003cb8 <max7219_senbit>
		else
		{
			max7219_senbit(portlog,0);
		}
	}
	for (i=0;i<8;i++)
 2003df8:	e0bffc03 	ldbu	r2,-16(fp)
 2003dfc:	10800044 	addi	r2,r2,1
 2003e00:	e0bffc05 	stb	r2,-16(fp)
 2003e04:	e0bffc07 	ldb	r2,-16(fp)
 2003e08:	10800210 	cmplti	r2,r2,8
 2003e0c:	103fec1e 	bne	r2,zero,2003dc0 <sen_2_byte_info+0x8c>
			{
				max7219_senbit(portlog,0);
			}

		}
	OutputHigh_cs(portlog);
 2003e10:	e13ffd17 	ldw	r4,-12(fp)
 2003e14:	2003c280 	call	2003c28 <OutputHigh_cs>
	usleep(1);
 2003e18:	01000044 	movi	r4,1
 2003e1c:	20116680 	call	2011668 <usleep>
	return portlog;
 2003e20:	e0bffd17 	ldw	r2,-12(fp)
}
 2003e24:	e037883a 	mov	sp,fp
 2003e28:	dfc00117 	ldw	ra,4(sp)
 2003e2c:	df000017 	ldw	fp,0(sp)
 2003e30:	dec00204 	addi	sp,sp,8
 2003e34:	f800283a 	ret

02003e38 <memcpy>:
 2003e38:	deffff04 	addi	sp,sp,-4
 2003e3c:	dc000015 	stw	r16,0(sp)
 2003e40:	00c003c4 	movi	r3,15
 2003e44:	2005883a 	mov	r2,r4
 2003e48:	1980432e 	bgeu	r3,r6,2003f58 <memcpy+0x120>
 2003e4c:	2146b03a 	or	r3,r4,r5
 2003e50:	18c000cc 	andi	r3,r3,3
 2003e54:	1800421e 	bne	r3,zero,2003f60 <memcpy+0x128>
 2003e58:	343ffc04 	addi	r16,r6,-16
 2003e5c:	8020d13a 	srli	r16,r16,4
 2003e60:	28c00104 	addi	r3,r5,4
 2003e64:	23400104 	addi	r13,r4,4
 2003e68:	801e913a 	slli	r15,r16,4
 2003e6c:	2b000204 	addi	r12,r5,8
 2003e70:	22c00204 	addi	r11,r4,8
 2003e74:	7bc00504 	addi	r15,r15,20
 2003e78:	2a800304 	addi	r10,r5,12
 2003e7c:	22400304 	addi	r9,r4,12
 2003e80:	2bdf883a 	add	r15,r5,r15
 2003e84:	2811883a 	mov	r8,r5
 2003e88:	200f883a 	mov	r7,r4
 2003e8c:	41000017 	ldw	r4,0(r8)
 2003e90:	39c00404 	addi	r7,r7,16
 2003e94:	18c00404 	addi	r3,r3,16
 2003e98:	393ffc15 	stw	r4,-16(r7)
 2003e9c:	1bbffc17 	ldw	r14,-16(r3)
 2003ea0:	6b400404 	addi	r13,r13,16
 2003ea4:	5ac00404 	addi	r11,r11,16
 2003ea8:	6bbffc15 	stw	r14,-16(r13)
 2003eac:	63800017 	ldw	r14,0(r12)
 2003eb0:	4a400404 	addi	r9,r9,16
 2003eb4:	42000404 	addi	r8,r8,16
 2003eb8:	5bbffc15 	stw	r14,-16(r11)
 2003ebc:	53800017 	ldw	r14,0(r10)
 2003ec0:	63000404 	addi	r12,r12,16
 2003ec4:	52800404 	addi	r10,r10,16
 2003ec8:	4bbffc15 	stw	r14,-16(r9)
 2003ecc:	1bffef1e 	bne	r3,r15,2003e8c <memcpy+0x54>
 2003ed0:	81c00044 	addi	r7,r16,1
 2003ed4:	380e913a 	slli	r7,r7,4
 2003ed8:	310003cc 	andi	r4,r6,15
 2003edc:	02c000c4 	movi	r11,3
 2003ee0:	11c7883a 	add	r3,r2,r7
 2003ee4:	29cb883a 	add	r5,r5,r7
 2003ee8:	59001f2e 	bgeu	r11,r4,2003f68 <memcpy+0x130>
 2003eec:	1813883a 	mov	r9,r3
 2003ef0:	2811883a 	mov	r8,r5
 2003ef4:	200f883a 	mov	r7,r4
 2003ef8:	42800017 	ldw	r10,0(r8)
 2003efc:	4a400104 	addi	r9,r9,4
 2003f00:	39ffff04 	addi	r7,r7,-4
 2003f04:	4abfff15 	stw	r10,-4(r9)
 2003f08:	42000104 	addi	r8,r8,4
 2003f0c:	59fffa36 	bltu	r11,r7,2003ef8 <memcpy+0xc0>
 2003f10:	213fff04 	addi	r4,r4,-4
 2003f14:	2008d0ba 	srli	r4,r4,2
 2003f18:	318000cc 	andi	r6,r6,3
 2003f1c:	21000044 	addi	r4,r4,1
 2003f20:	2109883a 	add	r4,r4,r4
 2003f24:	2109883a 	add	r4,r4,r4
 2003f28:	1907883a 	add	r3,r3,r4
 2003f2c:	290b883a 	add	r5,r5,r4
 2003f30:	30000626 	beq	r6,zero,2003f4c <memcpy+0x114>
 2003f34:	198d883a 	add	r6,r3,r6
 2003f38:	29c00003 	ldbu	r7,0(r5)
 2003f3c:	18c00044 	addi	r3,r3,1
 2003f40:	29400044 	addi	r5,r5,1
 2003f44:	19ffffc5 	stb	r7,-1(r3)
 2003f48:	19bffb1e 	bne	r3,r6,2003f38 <memcpy+0x100>
 2003f4c:	dc000017 	ldw	r16,0(sp)
 2003f50:	dec00104 	addi	sp,sp,4
 2003f54:	f800283a 	ret
 2003f58:	2007883a 	mov	r3,r4
 2003f5c:	003ff406 	br	2003f30 <memcpy+0xf8>
 2003f60:	2007883a 	mov	r3,r4
 2003f64:	003ff306 	br	2003f34 <memcpy+0xfc>
 2003f68:	200d883a 	mov	r6,r4
 2003f6c:	003ff006 	br	2003f30 <memcpy+0xf8>

02003f70 <memset>:
 2003f70:	20c000cc 	andi	r3,r4,3
 2003f74:	2005883a 	mov	r2,r4
 2003f78:	18004326 	beq	r3,zero,2004088 <memset+0x118>
 2003f7c:	31ffffc4 	addi	r7,r6,-1
 2003f80:	30004026 	beq	r6,zero,2004084 <memset+0x114>
 2003f84:	2813883a 	mov	r9,r5
 2003f88:	200d883a 	mov	r6,r4
 2003f8c:	2007883a 	mov	r3,r4
 2003f90:	00000406 	br	2003fa4 <memset+0x34>
 2003f94:	3a3fffc4 	addi	r8,r7,-1
 2003f98:	31800044 	addi	r6,r6,1
 2003f9c:	38003926 	beq	r7,zero,2004084 <memset+0x114>
 2003fa0:	400f883a 	mov	r7,r8
 2003fa4:	18c00044 	addi	r3,r3,1
 2003fa8:	32400005 	stb	r9,0(r6)
 2003fac:	1a0000cc 	andi	r8,r3,3
 2003fb0:	403ff81e 	bne	r8,zero,2003f94 <memset+0x24>
 2003fb4:	010000c4 	movi	r4,3
 2003fb8:	21c02d2e 	bgeu	r4,r7,2004070 <memset+0x100>
 2003fbc:	29803fcc 	andi	r6,r5,255
 2003fc0:	3008923a 	slli	r4,r6,8
 2003fc4:	218cb03a 	or	r6,r4,r6
 2003fc8:	3008943a 	slli	r4,r6,16
 2003fcc:	218cb03a 	or	r6,r4,r6
 2003fd0:	010003c4 	movi	r4,15
 2003fd4:	21c0182e 	bgeu	r4,r7,2004038 <memset+0xc8>
 2003fd8:	3b3ffc04 	addi	r12,r7,-16
 2003fdc:	6018d13a 	srli	r12,r12,4
 2003fe0:	1a000104 	addi	r8,r3,4
 2003fe4:	1ac00204 	addi	r11,r3,8
 2003fe8:	6008913a 	slli	r4,r12,4
 2003fec:	1a800304 	addi	r10,r3,12
 2003ff0:	1813883a 	mov	r9,r3
 2003ff4:	21000504 	addi	r4,r4,20
 2003ff8:	1909883a 	add	r4,r3,r4
 2003ffc:	49800015 	stw	r6,0(r9)
 2004000:	41800015 	stw	r6,0(r8)
 2004004:	59800015 	stw	r6,0(r11)
 2004008:	51800015 	stw	r6,0(r10)
 200400c:	42000404 	addi	r8,r8,16
 2004010:	4a400404 	addi	r9,r9,16
 2004014:	5ac00404 	addi	r11,r11,16
 2004018:	52800404 	addi	r10,r10,16
 200401c:	413ff71e 	bne	r8,r4,2003ffc <memset+0x8c>
 2004020:	63000044 	addi	r12,r12,1
 2004024:	6018913a 	slli	r12,r12,4
 2004028:	39c003cc 	andi	r7,r7,15
 200402c:	010000c4 	movi	r4,3
 2004030:	1b07883a 	add	r3,r3,r12
 2004034:	21c00e2e 	bgeu	r4,r7,2004070 <memset+0x100>
 2004038:	1813883a 	mov	r9,r3
 200403c:	3811883a 	mov	r8,r7
 2004040:	010000c4 	movi	r4,3
 2004044:	49800015 	stw	r6,0(r9)
 2004048:	423fff04 	addi	r8,r8,-4
 200404c:	4a400104 	addi	r9,r9,4
 2004050:	223ffc36 	bltu	r4,r8,2004044 <memset+0xd4>
 2004054:	393fff04 	addi	r4,r7,-4
 2004058:	2008d0ba 	srli	r4,r4,2
 200405c:	39c000cc 	andi	r7,r7,3
 2004060:	21000044 	addi	r4,r4,1
 2004064:	2109883a 	add	r4,r4,r4
 2004068:	2109883a 	add	r4,r4,r4
 200406c:	1907883a 	add	r3,r3,r4
 2004070:	38000426 	beq	r7,zero,2004084 <memset+0x114>
 2004074:	19cf883a 	add	r7,r3,r7
 2004078:	19400005 	stb	r5,0(r3)
 200407c:	18c00044 	addi	r3,r3,1
 2004080:	19fffd1e 	bne	r3,r7,2004078 <memset+0x108>
 2004084:	f800283a 	ret
 2004088:	2007883a 	mov	r3,r4
 200408c:	300f883a 	mov	r7,r6
 2004090:	003fc806 	br	2003fb4 <memset+0x44>

02004094 <_printf_r>:
 2004094:	defffd04 	addi	sp,sp,-12
 2004098:	dfc00015 	stw	ra,0(sp)
 200409c:	d9800115 	stw	r6,4(sp)
 20040a0:	d9c00215 	stw	r7,8(sp)
 20040a4:	280d883a 	mov	r6,r5
 20040a8:	21400217 	ldw	r5,8(r4)
 20040ac:	d9c00104 	addi	r7,sp,4
 20040b0:	20044880 	call	2004488 <___vfprintf_internal_r>
 20040b4:	dfc00017 	ldw	ra,0(sp)
 20040b8:	dec00304 	addi	sp,sp,12
 20040bc:	f800283a 	ret

020040c0 <printf>:
 20040c0:	defffc04 	addi	sp,sp,-16
 20040c4:	dfc00015 	stw	ra,0(sp)
 20040c8:	d9400115 	stw	r5,4(sp)
 20040cc:	d9800215 	stw	r6,8(sp)
 20040d0:	d9c00315 	stw	r7,12(sp)
 20040d4:	008080b4 	movhi	r2,514
 20040d8:	10aa6704 	addi	r2,r2,-22116
 20040dc:	10800017 	ldw	r2,0(r2)
 20040e0:	200b883a 	mov	r5,r4
 20040e4:	d9800104 	addi	r6,sp,4
 20040e8:	11000217 	ldw	r4,8(r2)
 20040ec:	20064e00 	call	20064e0 <__vfprintf_internal>
 20040f0:	dfc00017 	ldw	ra,0(sp)
 20040f4:	dec00404 	addi	sp,sp,16
 20040f8:	f800283a 	ret

020040fc <_putc_r>:
 20040fc:	defffc04 	addi	sp,sp,-16
 2004100:	dc000215 	stw	r16,8(sp)
 2004104:	dfc00315 	stw	ra,12(sp)
 2004108:	2021883a 	mov	r16,r4
 200410c:	20000226 	beq	r4,zero,2004118 <_putc_r+0x1c>
 2004110:	20800e17 	ldw	r2,56(r4)
 2004114:	10001b26 	beq	r2,zero,2004184 <_putc_r+0x88>
 2004118:	30800217 	ldw	r2,8(r6)
 200411c:	10bfffc4 	addi	r2,r2,-1
 2004120:	30800215 	stw	r2,8(r6)
 2004124:	10000a16 	blt	r2,zero,2004150 <_putc_r+0x54>
 2004128:	30800017 	ldw	r2,0(r6)
 200412c:	11400005 	stb	r5,0(r2)
 2004130:	30800017 	ldw	r2,0(r6)
 2004134:	10c00044 	addi	r3,r2,1
 2004138:	30c00015 	stw	r3,0(r6)
 200413c:	10800003 	ldbu	r2,0(r2)
 2004140:	dfc00317 	ldw	ra,12(sp)
 2004144:	dc000217 	ldw	r16,8(sp)
 2004148:	dec00404 	addi	sp,sp,16
 200414c:	f800283a 	ret
 2004150:	30c00617 	ldw	r3,24(r6)
 2004154:	10c00616 	blt	r2,r3,2004170 <_putc_r+0x74>
 2004158:	30800017 	ldw	r2,0(r6)
 200415c:	00c00284 	movi	r3,10
 2004160:	11400005 	stb	r5,0(r2)
 2004164:	30800017 	ldw	r2,0(r6)
 2004168:	11400003 	ldbu	r5,0(r2)
 200416c:	28fff11e 	bne	r5,r3,2004134 <_putc_r+0x38>
 2004170:	8009883a 	mov	r4,r16
 2004174:	dfc00317 	ldw	ra,12(sp)
 2004178:	dc000217 	ldw	r16,8(sp)
 200417c:	dec00404 	addi	sp,sp,16
 2004180:	20065c01 	jmpi	20065c0 <__swbuf_r>
 2004184:	d9400015 	stw	r5,0(sp)
 2004188:	d9800115 	stw	r6,4(sp)
 200418c:	20087ac0 	call	20087ac <__sinit>
 2004190:	d9800117 	ldw	r6,4(sp)
 2004194:	d9400017 	ldw	r5,0(sp)
 2004198:	003fdf06 	br	2004118 <_putc_r+0x1c>

0200419c <putc>:
 200419c:	008080b4 	movhi	r2,514
 20041a0:	defffc04 	addi	sp,sp,-16
 20041a4:	10aa6704 	addi	r2,r2,-22116
 20041a8:	dc400115 	stw	r17,4(sp)
 20041ac:	14400017 	ldw	r17,0(r2)
 20041b0:	dc800215 	stw	r18,8(sp)
 20041b4:	dc000015 	stw	r16,0(sp)
 20041b8:	dfc00315 	stw	ra,12(sp)
 20041bc:	2025883a 	mov	r18,r4
 20041c0:	2821883a 	mov	r16,r5
 20041c4:	88000226 	beq	r17,zero,20041d0 <putc+0x34>
 20041c8:	88800e17 	ldw	r2,56(r17)
 20041cc:	10001a26 	beq	r2,zero,2004238 <putc+0x9c>
 20041d0:	80800217 	ldw	r2,8(r16)
 20041d4:	10bfffc4 	addi	r2,r2,-1
 20041d8:	80800215 	stw	r2,8(r16)
 20041dc:	10000c16 	blt	r2,zero,2004210 <putc+0x74>
 20041e0:	80800017 	ldw	r2,0(r16)
 20041e4:	14800005 	stb	r18,0(r2)
 20041e8:	80800017 	ldw	r2,0(r16)
 20041ec:	10c00044 	addi	r3,r2,1
 20041f0:	80c00015 	stw	r3,0(r16)
 20041f4:	10800003 	ldbu	r2,0(r2)
 20041f8:	dfc00317 	ldw	ra,12(sp)
 20041fc:	dc800217 	ldw	r18,8(sp)
 2004200:	dc400117 	ldw	r17,4(sp)
 2004204:	dc000017 	ldw	r16,0(sp)
 2004208:	dec00404 	addi	sp,sp,16
 200420c:	f800283a 	ret
 2004210:	80c00617 	ldw	r3,24(r16)
 2004214:	10c00b16 	blt	r2,r3,2004244 <putc+0xa8>
 2004218:	80800017 	ldw	r2,0(r16)
 200421c:	00c00284 	movi	r3,10
 2004220:	14800005 	stb	r18,0(r2)
 2004224:	80800017 	ldw	r2,0(r16)
 2004228:	11400003 	ldbu	r5,0(r2)
 200422c:	28ffef1e 	bne	r5,r3,20041ec <putc+0x50>
 2004230:	8809883a 	mov	r4,r17
 2004234:	00000506 	br	200424c <putc+0xb0>
 2004238:	8809883a 	mov	r4,r17
 200423c:	20087ac0 	call	20087ac <__sinit>
 2004240:	003fe306 	br	20041d0 <putc+0x34>
 2004244:	8809883a 	mov	r4,r17
 2004248:	900b883a 	mov	r5,r18
 200424c:	800d883a 	mov	r6,r16
 2004250:	dfc00317 	ldw	ra,12(sp)
 2004254:	dc800217 	ldw	r18,8(sp)
 2004258:	dc400117 	ldw	r17,4(sp)
 200425c:	dc000017 	ldw	r16,0(sp)
 2004260:	dec00404 	addi	sp,sp,16
 2004264:	20065c01 	jmpi	20065c0 <__swbuf_r>

02004268 <_puts_r>:
 2004268:	defff604 	addi	sp,sp,-40
 200426c:	dc000715 	stw	r16,28(sp)
 2004270:	2021883a 	mov	r16,r4
 2004274:	2809883a 	mov	r4,r5
 2004278:	dc400815 	stw	r17,32(sp)
 200427c:	dfc00915 	stw	ra,36(sp)
 2004280:	2823883a 	mov	r17,r5
 2004284:	20043a00 	call	20043a0 <strlen>
 2004288:	81400217 	ldw	r5,8(r16)
 200428c:	11000044 	addi	r4,r2,1
 2004290:	d8800115 	stw	r2,4(sp)
 2004294:	008080b4 	movhi	r2,514
 2004298:	2980030b 	ldhu	r6,12(r5)
 200429c:	10a2b904 	addi	r2,r2,-29980
 20042a0:	d8800215 	stw	r2,8(sp)
 20042a4:	00800044 	movi	r2,1
 20042a8:	d8800315 	stw	r2,12(sp)
 20042ac:	00800084 	movi	r2,2
 20042b0:	d8800515 	stw	r2,20(sp)
 20042b4:	dc400015 	stw	r17,0(sp)
 20042b8:	d9000615 	stw	r4,24(sp)
 20042bc:	dec00415 	stw	sp,16(sp)
 20042c0:	3088000c 	andi	r2,r6,8192
 20042c4:	1000061e 	bne	r2,zero,20042e0 <_puts_r+0x78>
 20042c8:	29001917 	ldw	r4,100(r5)
 20042cc:	00b7ffc4 	movi	r2,-8193
 20042d0:	31880014 	ori	r6,r6,8192
 20042d4:	2084703a 	and	r2,r4,r2
 20042d8:	2980030d 	sth	r6,12(r5)
 20042dc:	28801915 	stw	r2,100(r5)
 20042e0:	8009883a 	mov	r4,r16
 20042e4:	d9800404 	addi	r6,sp,16
 20042e8:	2008c100 	call	2008c10 <__sfvwrite_r>
 20042ec:	1000061e 	bne	r2,zero,2004308 <_puts_r+0xa0>
 20042f0:	00800284 	movi	r2,10
 20042f4:	dfc00917 	ldw	ra,36(sp)
 20042f8:	dc400817 	ldw	r17,32(sp)
 20042fc:	dc000717 	ldw	r16,28(sp)
 2004300:	dec00a04 	addi	sp,sp,40
 2004304:	f800283a 	ret
 2004308:	00bfffc4 	movi	r2,-1
 200430c:	003ff906 	br	20042f4 <_puts_r+0x8c>

02004310 <puts>:
 2004310:	008080b4 	movhi	r2,514
 2004314:	10aa6704 	addi	r2,r2,-22116
 2004318:	200b883a 	mov	r5,r4
 200431c:	11000017 	ldw	r4,0(r2)
 2004320:	20042681 	jmpi	2004268 <_puts_r>

02004324 <srand>:
 2004324:	008080b4 	movhi	r2,514
 2004328:	10aa6704 	addi	r2,r2,-22116
 200432c:	10800017 	ldw	r2,0(r2)
 2004330:	11002915 	stw	r4,164(r2)
 2004334:	10002a15 	stw	zero,168(r2)
 2004338:	f800283a 	ret

0200433c <rand>:
 200433c:	008080b4 	movhi	r2,514
 2004340:	defffe04 	addi	sp,sp,-8
 2004344:	10aa6704 	addi	r2,r2,-22116
 2004348:	dc000015 	stw	r16,0(sp)
 200434c:	14000017 	ldw	r16,0(r2)
 2004350:	dfc00115 	stw	ra,4(sp)
 2004354:	01932574 	movhi	r6,19605
 2004358:	81002917 	ldw	r4,164(r16)
 200435c:	81402a17 	ldw	r5,168(r16)
 2004360:	01d614b4 	movhi	r7,22610
 2004364:	319fcb44 	addi	r6,r6,32557
 2004368:	39fd0b44 	addi	r7,r7,-3027
 200436c:	200d4480 	call	200d448 <__muldi3>
 2004370:	11000044 	addi	r4,r2,1
 2004374:	2085803a 	cmpltu	r2,r4,r2
 2004378:	10c7883a 	add	r3,r2,r3
 200437c:	00a00034 	movhi	r2,32768
 2004380:	10bfffc4 	addi	r2,r2,-1
 2004384:	1884703a 	and	r2,r3,r2
 2004388:	81002915 	stw	r4,164(r16)
 200438c:	80c02a15 	stw	r3,168(r16)
 2004390:	dfc00117 	ldw	ra,4(sp)
 2004394:	dc000017 	ldw	r16,0(sp)
 2004398:	dec00204 	addi	sp,sp,8
 200439c:	f800283a 	ret

020043a0 <strlen>:
 20043a0:	208000cc 	andi	r2,r4,3
 20043a4:	10002026 	beq	r2,zero,2004428 <strlen+0x88>
 20043a8:	20800007 	ldb	r2,0(r4)
 20043ac:	10002026 	beq	r2,zero,2004430 <strlen+0x90>
 20043b0:	2005883a 	mov	r2,r4
 20043b4:	00000206 	br	20043c0 <strlen+0x20>
 20043b8:	10c00007 	ldb	r3,0(r2)
 20043bc:	18001826 	beq	r3,zero,2004420 <strlen+0x80>
 20043c0:	10800044 	addi	r2,r2,1
 20043c4:	10c000cc 	andi	r3,r2,3
 20043c8:	183ffb1e 	bne	r3,zero,20043b8 <strlen+0x18>
 20043cc:	10c00017 	ldw	r3,0(r2)
 20043d0:	01ffbff4 	movhi	r7,65279
 20043d4:	39ffbfc4 	addi	r7,r7,-257
 20043d8:	00ca303a 	nor	r5,zero,r3
 20043dc:	01a02074 	movhi	r6,32897
 20043e0:	19c7883a 	add	r3,r3,r7
 20043e4:	31a02004 	addi	r6,r6,-32640
 20043e8:	1946703a 	and	r3,r3,r5
 20043ec:	1986703a 	and	r3,r3,r6
 20043f0:	1800091e 	bne	r3,zero,2004418 <strlen+0x78>
 20043f4:	10800104 	addi	r2,r2,4
 20043f8:	10c00017 	ldw	r3,0(r2)
 20043fc:	19cb883a 	add	r5,r3,r7
 2004400:	00c6303a 	nor	r3,zero,r3
 2004404:	28c6703a 	and	r3,r5,r3
 2004408:	1986703a 	and	r3,r3,r6
 200440c:	183ff926 	beq	r3,zero,20043f4 <strlen+0x54>
 2004410:	00000106 	br	2004418 <strlen+0x78>
 2004414:	10800044 	addi	r2,r2,1
 2004418:	10c00007 	ldb	r3,0(r2)
 200441c:	183ffd1e 	bne	r3,zero,2004414 <strlen+0x74>
 2004420:	1105c83a 	sub	r2,r2,r4
 2004424:	f800283a 	ret
 2004428:	2005883a 	mov	r2,r4
 200442c:	003fe706 	br	20043cc <strlen+0x2c>
 2004430:	0005883a 	mov	r2,zero
 2004434:	f800283a 	ret

02004438 <time>:
 2004438:	008080b4 	movhi	r2,514
 200443c:	defffc04 	addi	sp,sp,-16
 2004440:	10aa6704 	addi	r2,r2,-22116
 2004444:	dc000215 	stw	r16,8(sp)
 2004448:	2021883a 	mov	r16,r4
 200444c:	11000017 	ldw	r4,0(r2)
 2004450:	d80b883a 	mov	r5,sp
 2004454:	000d883a 	mov	r6,zero
 2004458:	dfc00315 	stw	ra,12(sp)
 200445c:	20092640 	call	2009264 <_gettimeofday_r>
 2004460:	10000716 	blt	r2,zero,2004480 <time+0x48>
 2004464:	d8800017 	ldw	r2,0(sp)
 2004468:	80000126 	beq	r16,zero,2004470 <time+0x38>
 200446c:	80800015 	stw	r2,0(r16)
 2004470:	dfc00317 	ldw	ra,12(sp)
 2004474:	dc000217 	ldw	r16,8(sp)
 2004478:	dec00404 	addi	sp,sp,16
 200447c:	f800283a 	ret
 2004480:	00bfffc4 	movi	r2,-1
 2004484:	003ffa06 	br	2004470 <time+0x38>

02004488 <___vfprintf_internal_r>:
 2004488:	deffb604 	addi	sp,sp,-296
 200448c:	dfc04915 	stw	ra,292(sp)
 2004490:	ddc04715 	stw	r23,284(sp)
 2004494:	dd804615 	stw	r22,280(sp)
 2004498:	202f883a 	mov	r23,r4
 200449c:	282d883a 	mov	r22,r5
 20044a0:	d9802a15 	stw	r6,168(sp)
 20044a4:	d9c02d15 	stw	r7,180(sp)
 20044a8:	df004815 	stw	fp,288(sp)
 20044ac:	dd404515 	stw	r21,276(sp)
 20044b0:	dd004415 	stw	r20,272(sp)
 20044b4:	dcc04315 	stw	r19,268(sp)
 20044b8:	dc804215 	stw	r18,264(sp)
 20044bc:	dc404115 	stw	r17,260(sp)
 20044c0:	dc004015 	stw	r16,256(sp)
 20044c4:	20093680 	call	2009368 <_localeconv_r>
 20044c8:	10800017 	ldw	r2,0(r2)
 20044cc:	1009883a 	mov	r4,r2
 20044d0:	d8803515 	stw	r2,212(sp)
 20044d4:	20043a00 	call	20043a0 <strlen>
 20044d8:	d8803815 	stw	r2,224(sp)
 20044dc:	b8000226 	beq	r23,zero,20044e8 <___vfprintf_internal_r+0x60>
 20044e0:	b8800e17 	ldw	r2,56(r23)
 20044e4:	1000e226 	beq	r2,zero,2004870 <___vfprintf_internal_r+0x3e8>
 20044e8:	b080030b 	ldhu	r2,12(r22)
 20044ec:	10c8000c 	andi	r3,r2,8192
 20044f0:	1800061e 	bne	r3,zero,200450c <___vfprintf_internal_r+0x84>
 20044f4:	b1001917 	ldw	r4,100(r22)
 20044f8:	00f7ffc4 	movi	r3,-8193
 20044fc:	10880014 	ori	r2,r2,8192
 2004500:	20c6703a 	and	r3,r4,r3
 2004504:	b080030d 	sth	r2,12(r22)
 2004508:	b0c01915 	stw	r3,100(r22)
 200450c:	10c0020c 	andi	r3,r2,8
 2004510:	1800a826 	beq	r3,zero,20047b4 <___vfprintf_internal_r+0x32c>
 2004514:	b0c00417 	ldw	r3,16(r22)
 2004518:	1800a626 	beq	r3,zero,20047b4 <___vfprintf_internal_r+0x32c>
 200451c:	1080068c 	andi	r2,r2,26
 2004520:	00c00284 	movi	r3,10
 2004524:	10c0ab26 	beq	r2,r3,20047d4 <___vfprintf_internal_r+0x34c>
 2004528:	d8801e04 	addi	r2,sp,120
 200452c:	d8c01dc4 	addi	r3,sp,119
 2004530:	d9000404 	addi	r4,sp,16
 2004534:	050080b4 	movhi	r20,514
 2004538:	10cbc83a 	sub	r5,r2,r3
 200453c:	a522ca84 	addi	r20,r20,-29910
 2004540:	d8802815 	stw	r2,160(sp)
 2004544:	d8c02915 	stw	r3,164(sp)
 2004548:	d9001e15 	stw	r4,120(sp)
 200454c:	d8002015 	stw	zero,128(sp)
 2004550:	d8001f15 	stw	zero,124(sp)
 2004554:	d8003315 	stw	zero,204(sp)
 2004558:	d8003715 	stw	zero,220(sp)
 200455c:	d8003915 	stw	zero,228(sp)
 2004560:	2011883a 	mov	r8,r4
 2004564:	d8003b15 	stw	zero,236(sp)
 2004568:	d8003a15 	stw	zero,232(sp)
 200456c:	d8002f15 	stw	zero,188(sp)
 2004570:	d9403c15 	stw	r5,240(sp)
 2004574:	d8c02a17 	ldw	r3,168(sp)
 2004578:	18800007 	ldb	r2,0(r3)
 200457c:	1001f226 	beq	r2,zero,2004d48 <___vfprintf_internal_r+0x8c0>
 2004580:	00c00944 	movi	r3,37
 2004584:	dc002a17 	ldw	r16,168(sp)
 2004588:	10c0021e 	bne	r2,r3,2004594 <___vfprintf_internal_r+0x10c>
 200458c:	00001606 	br	20045e8 <___vfprintf_internal_r+0x160>
 2004590:	10c08526 	beq	r2,r3,20047a8 <___vfprintf_internal_r+0x320>
 2004594:	84000044 	addi	r16,r16,1
 2004598:	80800007 	ldb	r2,0(r16)
 200459c:	103ffc1e 	bne	r2,zero,2004590 <___vfprintf_internal_r+0x108>
 20045a0:	d9002a17 	ldw	r4,168(sp)
 20045a4:	8123c83a 	sub	r17,r16,r4
 20045a8:	88000f26 	beq	r17,zero,20045e8 <___vfprintf_internal_r+0x160>
 20045ac:	d8802a17 	ldw	r2,168(sp)
 20045b0:	d8c02017 	ldw	r3,128(sp)
 20045b4:	44400115 	stw	r17,4(r8)
 20045b8:	40800015 	stw	r2,0(r8)
 20045bc:	d8801f17 	ldw	r2,124(sp)
 20045c0:	1c47883a 	add	r3,r3,r17
 20045c4:	d8c02015 	stw	r3,128(sp)
 20045c8:	10800044 	addi	r2,r2,1
 20045cc:	d8801f15 	stw	r2,124(sp)
 20045d0:	00c001c4 	movi	r3,7
 20045d4:	18809416 	blt	r3,r2,2004828 <___vfprintf_internal_r+0x3a0>
 20045d8:	42000204 	addi	r8,r8,8
 20045dc:	d8c02f17 	ldw	r3,188(sp)
 20045e0:	1c47883a 	add	r3,r3,r17
 20045e4:	d8c02f15 	stw	r3,188(sp)
 20045e8:	80800007 	ldb	r2,0(r16)
 20045ec:	10009526 	beq	r2,zero,2004844 <___vfprintf_internal_r+0x3bc>
 20045f0:	80800044 	addi	r2,r16,1
 20045f4:	84000047 	ldb	r16,1(r16)
 20045f8:	0027883a 	mov	r19,zero
 20045fc:	0039883a 	mov	fp,zero
 2004600:	dcc02b05 	stb	r19,172(sp)
 2004604:	d8002785 	stb	zero,158(sp)
 2004608:	027fffc4 	movi	r9,-1
 200460c:	d8002e15 	stw	zero,184(sp)
 2004610:	04401604 	movi	r17,88
 2004614:	04800244 	movi	r18,9
 2004618:	da002a15 	stw	r8,168(sp)
 200461c:	e027883a 	mov	r19,fp
 2004620:	17000044 	addi	fp,r2,1
 2004624:	80bff804 	addi	r2,r16,-32
 2004628:	8882ed36 	bltu	r17,r2,20051e0 <___vfprintf_internal_r+0xd58>
 200462c:	100490ba 	slli	r2,r2,2
 2004630:	01008034 	movhi	r4,512
 2004634:	21119104 	addi	r4,r4,17988
 2004638:	1105883a 	add	r2,r2,r4
 200463c:	10800017 	ldw	r2,0(r2)
 2004640:	1000683a 	jmp	r2
 2004644:	02005028 	cmpgeui	r8,zero,320
 2004648:	020051e0 	cmpeqi	r8,zero,327
 200464c:	020051e0 	cmpeqi	r8,zero,327
 2004650:	02005044 	movi	r8,321
 2004654:	020051e0 	cmpeqi	r8,zero,327
 2004658:	020051e0 	cmpeqi	r8,zero,327
 200465c:	020051e0 	cmpeqi	r8,zero,327
 2004660:	020051e0 	cmpeqi	r8,zero,327
 2004664:	020051e0 	cmpeqi	r8,zero,327
 2004668:	020051e0 	cmpeqi	r8,zero,327
 200466c:	02005054 	movui	r8,321
 2004670:	0200507c 	xorhi	r8,zero,321
 2004674:	020051e0 	cmpeqi	r8,zero,327
 2004678:	0200487c 	xorhi	r8,zero,289
 200467c:	0200488c 	andi	r8,zero,290
 2004680:	020051e0 	cmpeqi	r8,zero,327
 2004684:	020048dc 	xori	r8,zero,291
 2004688:	020048ec 	andhi	r8,zero,291
 200468c:	020048ec 	andhi	r8,zero,291
 2004690:	020048ec 	andhi	r8,zero,291
 2004694:	020048ec 	andhi	r8,zero,291
 2004698:	020048ec 	andhi	r8,zero,291
 200469c:	020048ec 	andhi	r8,zero,291
 20046a0:	020048ec 	andhi	r8,zero,291
 20046a4:	020048ec 	andhi	r8,zero,291
 20046a8:	020048ec 	andhi	r8,zero,291
 20046ac:	020051e0 	cmpeqi	r8,zero,327
 20046b0:	020051e0 	cmpeqi	r8,zero,327
 20046b4:	020051e0 	cmpeqi	r8,zero,327
 20046b8:	020051e0 	cmpeqi	r8,zero,327
 20046bc:	020051e0 	cmpeqi	r8,zero,327
 20046c0:	020051e0 	cmpeqi	r8,zero,327
 20046c4:	020051e0 	cmpeqi	r8,zero,327
 20046c8:	020051e0 	cmpeqi	r8,zero,327
 20046cc:	020051e0 	cmpeqi	r8,zero,327
 20046d0:	020051e0 	cmpeqi	r8,zero,327
 20046d4:	02004930 	cmpltui	r8,zero,292
 20046d8:	02004d50 	cmplti	r8,zero,309
 20046dc:	020051e0 	cmpeqi	r8,zero,327
 20046e0:	02004d50 	cmplti	r8,zero,309
 20046e4:	020051e0 	cmpeqi	r8,zero,327
 20046e8:	020051e0 	cmpeqi	r8,zero,327
 20046ec:	020051e0 	cmpeqi	r8,zero,327
 20046f0:	020051e0 	cmpeqi	r8,zero,327
 20046f4:	02004df8 	rdprs	r8,zero,311
 20046f8:	020051e0 	cmpeqi	r8,zero,327
 20046fc:	020051e0 	cmpeqi	r8,zero,327
 2004700:	02004e08 	cmpgei	r8,zero,312
 2004704:	020051e0 	cmpeqi	r8,zero,327
 2004708:	020051e0 	cmpeqi	r8,zero,327
 200470c:	020051e0 	cmpeqi	r8,zero,327
 2004710:	020051e0 	cmpeqi	r8,zero,327
 2004714:	020051e0 	cmpeqi	r8,zero,327
 2004718:	02004e48 	cmpgei	r8,zero,313
 200471c:	020051e0 	cmpeqi	r8,zero,327
 2004720:	020051e0 	cmpeqi	r8,zero,327
 2004724:	02004f74 	movhi	r8,317
 2004728:	020051e0 	cmpeqi	r8,zero,327
 200472c:	020051e0 	cmpeqi	r8,zero,327
 2004730:	020051e0 	cmpeqi	r8,zero,327
 2004734:	020051e0 	cmpeqi	r8,zero,327
 2004738:	020051e0 	cmpeqi	r8,zero,327
 200473c:	020051e0 	cmpeqi	r8,zero,327
 2004740:	020051e0 	cmpeqi	r8,zero,327
 2004744:	020051e0 	cmpeqi	r8,zero,327
 2004748:	020051e0 	cmpeqi	r8,zero,327
 200474c:	020051e0 	cmpeqi	r8,zero,327
 2004750:	02004fdc 	xori	r8,zero,319
 2004754:	02004ec8 	cmpgei	r8,zero,315
 2004758:	02004d50 	cmplti	r8,zero,309
 200475c:	02004d50 	cmplti	r8,zero,309
 2004760:	02004d50 	cmplti	r8,zero,309
 2004764:	02004f0c 	andi	r8,zero,316
 2004768:	02004ec8 	cmpgei	r8,zero,315
 200476c:	020051e0 	cmpeqi	r8,zero,327
 2004770:	020051e0 	cmpeqi	r8,zero,327
 2004774:	02004f1c 	xori	r8,zero,316
 2004778:	020051e0 	cmpeqi	r8,zero,327
 200477c:	02004f34 	movhi	r8,316
 2004780:	020051a4 	muli	r8,zero,326
 2004784:	02004e7c 	xorhi	r8,zero,313
 2004788:	02005158 	cmpnei	r8,zero,325
 200478c:	020051e0 	cmpeqi	r8,zero,327
 2004790:	02005090 	cmplti	r8,zero,322
 2004794:	020051e0 	cmpeqi	r8,zero,327
 2004798:	02005168 	cmpgeui	r8,zero,325
 200479c:	020051e0 	cmpeqi	r8,zero,327
 20047a0:	020051e0 	cmpeqi	r8,zero,327
 20047a4:	0200510c 	andi	r8,zero,324
 20047a8:	d9402a17 	ldw	r5,168(sp)
 20047ac:	8163c83a 	sub	r17,r16,r5
 20047b0:	003f7d06 	br	20045a8 <___vfprintf_internal_r+0x120>
 20047b4:	b809883a 	mov	r4,r23
 20047b8:	b00b883a 	mov	r5,r22
 20047bc:	20067140 	call	2006714 <__swsetup_r>
 20047c0:	10000c1e 	bne	r2,zero,20047f4 <___vfprintf_internal_r+0x36c>
 20047c4:	b080030b 	ldhu	r2,12(r22)
 20047c8:	00c00284 	movi	r3,10
 20047cc:	1080068c 	andi	r2,r2,26
 20047d0:	10ff551e 	bne	r2,r3,2004528 <___vfprintf_internal_r+0xa0>
 20047d4:	b080038f 	ldh	r2,14(r22)
 20047d8:	103f5316 	blt	r2,zero,2004528 <___vfprintf_internal_r+0xa0>
 20047dc:	d9802a17 	ldw	r6,168(sp)
 20047e0:	d9c02d17 	ldw	r7,180(sp)
 20047e4:	b809883a 	mov	r4,r23
 20047e8:	b00b883a 	mov	r5,r22
 20047ec:	20065040 	call	2006504 <__sbprintf>
 20047f0:	00000106 	br	20047f8 <___vfprintf_internal_r+0x370>
 20047f4:	00bfffc4 	movi	r2,-1
 20047f8:	dfc04917 	ldw	ra,292(sp)
 20047fc:	df004817 	ldw	fp,288(sp)
 2004800:	ddc04717 	ldw	r23,284(sp)
 2004804:	dd804617 	ldw	r22,280(sp)
 2004808:	dd404517 	ldw	r21,276(sp)
 200480c:	dd004417 	ldw	r20,272(sp)
 2004810:	dcc04317 	ldw	r19,268(sp)
 2004814:	dc804217 	ldw	r18,264(sp)
 2004818:	dc404117 	ldw	r17,260(sp)
 200481c:	dc004017 	ldw	r16,256(sp)
 2004820:	dec04a04 	addi	sp,sp,296
 2004824:	f800283a 	ret
 2004828:	b809883a 	mov	r4,r23
 200482c:	b00b883a 	mov	r5,r22
 2004830:	d9801e04 	addi	r6,sp,120
 2004834:	200b8a80 	call	200b8a8 <__sprint_r>
 2004838:	1000081e 	bne	r2,zero,200485c <___vfprintf_internal_r+0x3d4>
 200483c:	da000404 	addi	r8,sp,16
 2004840:	003f6606 	br	20045dc <___vfprintf_internal_r+0x154>
 2004844:	d8802017 	ldw	r2,128(sp)
 2004848:	10000426 	beq	r2,zero,200485c <___vfprintf_internal_r+0x3d4>
 200484c:	b809883a 	mov	r4,r23
 2004850:	b00b883a 	mov	r5,r22
 2004854:	d9801e04 	addi	r6,sp,120
 2004858:	200b8a80 	call	200b8a8 <__sprint_r>
 200485c:	b080030b 	ldhu	r2,12(r22)
 2004860:	1080100c 	andi	r2,r2,64
 2004864:	103fe31e 	bne	r2,zero,20047f4 <___vfprintf_internal_r+0x36c>
 2004868:	d8802f17 	ldw	r2,188(sp)
 200486c:	003fe206 	br	20047f8 <___vfprintf_internal_r+0x370>
 2004870:	b809883a 	mov	r4,r23
 2004874:	20087ac0 	call	20087ac <__sinit>
 2004878:	003f1b06 	br	20044e8 <___vfprintf_internal_r+0x60>
 200487c:	e005883a 	mov	r2,fp
 2004880:	9cc00114 	ori	r19,r19,4
 2004884:	e4000007 	ldb	r16,0(fp)
 2004888:	003f6506 	br	2004620 <___vfprintf_internal_r+0x198>
 200488c:	e4000007 	ldb	r16,0(fp)
 2004890:	01000a84 	movi	r4,42
 2004894:	e0800044 	addi	r2,fp,1
 2004898:	8106ff26 	beq	r16,r4,2006498 <___vfprintf_internal_r+0x2010>
 200489c:	857ff404 	addi	r21,r16,-48
 20048a0:	1039883a 	mov	fp,r2
 20048a4:	0013883a 	mov	r9,zero
 20048a8:	957f5e36 	bltu	r18,r21,2004624 <___vfprintf_internal_r+0x19c>
 20048ac:	0009883a 	mov	r4,zero
 20048b0:	01400284 	movi	r5,10
 20048b4:	200e2dc0 	call	200e2dc <__mulsi3>
 20048b8:	e4000007 	ldb	r16,0(fp)
 20048bc:	a889883a 	add	r4,r21,r2
 20048c0:	e7000044 	addi	fp,fp,1
 20048c4:	857ff404 	addi	r21,r16,-48
 20048c8:	957ff92e 	bgeu	r18,r21,20048b0 <___vfprintf_internal_r+0x428>
 20048cc:	2013883a 	mov	r9,r4
 20048d0:	203f540e 	bge	r4,zero,2004624 <___vfprintf_internal_r+0x19c>
 20048d4:	027fffc4 	movi	r9,-1
 20048d8:	003f5206 	br	2004624 <___vfprintf_internal_r+0x19c>
 20048dc:	9cc02014 	ori	r19,r19,128
 20048e0:	e005883a 	mov	r2,fp
 20048e4:	e4000007 	ldb	r16,0(fp)
 20048e8:	003f4d06 	br	2004620 <___vfprintf_internal_r+0x198>
 20048ec:	857ff404 	addi	r21,r16,-48
 20048f0:	d8002e15 	stw	zero,184(sp)
 20048f4:	0009883a 	mov	r4,zero
 20048f8:	da402c15 	stw	r9,176(sp)
 20048fc:	e021883a 	mov	r16,fp
 2004900:	01400284 	movi	r5,10
 2004904:	200e2dc0 	call	200e2dc <__mulsi3>
 2004908:	81400007 	ldb	r5,0(r16)
 200490c:	1549883a 	add	r4,r2,r21
 2004910:	e7000044 	addi	fp,fp,1
 2004914:	2d7ff404 	addi	r21,r5,-48
 2004918:	e021883a 	mov	r16,fp
 200491c:	957ff82e 	bgeu	r18,r21,2004900 <___vfprintf_internal_r+0x478>
 2004920:	2821883a 	mov	r16,r5
 2004924:	d9002e15 	stw	r4,184(sp)
 2004928:	da402c17 	ldw	r9,176(sp)
 200492c:	003f3d06 	br	2004624 <___vfprintf_internal_r+0x19c>
 2004930:	da002a17 	ldw	r8,168(sp)
 2004934:	df002a15 	stw	fp,168(sp)
 2004938:	9839883a 	mov	fp,r19
 200493c:	dcc02b03 	ldbu	r19,172(sp)
 2004940:	e7000414 	ori	fp,fp,16
 2004944:	e080080c 	andi	r2,fp,32
 2004948:	dcc02785 	stb	r19,158(sp)
 200494c:	d8c02d17 	ldw	r3,180(sp)
 2004950:	10016526 	beq	r2,zero,2004ee8 <___vfprintf_internal_r+0xa60>
 2004954:	d9002d17 	ldw	r4,180(sp)
 2004958:	18800117 	ldw	r2,4(r3)
 200495c:	1c800017 	ldw	r18,0(r3)
 2004960:	21000204 	addi	r4,r4,8
 2004964:	d9002d15 	stw	r4,180(sp)
 2004968:	102b883a 	mov	r21,r2
 200496c:	10044516 	blt	r2,zero,2005a84 <___vfprintf_internal_r+0x15fc>
 2004970:	dcc02783 	ldbu	r19,158(sp)
 2004974:	da403215 	stw	r9,200(sp)
 2004978:	00800044 	movi	r2,1
 200497c:	9546b03a 	or	r3,r18,r21
 2004980:	48000216 	blt	r9,zero,200498c <___vfprintf_internal_r+0x504>
 2004984:	013fdfc4 	movi	r4,-129
 2004988:	e138703a 	and	fp,fp,r4
 200498c:	1802211e 	bne	r3,zero,2005214 <___vfprintf_internal_r+0xd8c>
 2004990:	48031326 	beq	r9,zero,20055e0 <___vfprintf_internal_r+0x1158>
 2004994:	10803fcc 	andi	r2,r2,255
 2004998:	00c00044 	movi	r3,1
 200499c:	10c24126 	beq	r2,r3,20052a4 <___vfprintf_internal_r+0xe1c>
 20049a0:	00c00084 	movi	r3,2
 20049a4:	10c33426 	beq	r2,r3,2005678 <___vfprintf_internal_r+0x11f0>
 20049a8:	d8c01e04 	addi	r3,sp,120
 20049ac:	9008d0fa 	srli	r4,r18,3
 20049b0:	a80a977a 	slli	r5,r21,29
 20049b4:	a82ad0fa 	srli	r21,r21,3
 20049b8:	948001cc 	andi	r18,r18,7
 20049bc:	90800c04 	addi	r2,r18,48
 20049c0:	18ffffc4 	addi	r3,r3,-1
 20049c4:	2924b03a 	or	r18,r5,r4
 20049c8:	18800005 	stb	r2,0(r3)
 20049cc:	9548b03a 	or	r4,r18,r21
 20049d0:	203ff61e 	bne	r4,zero,20049ac <___vfprintf_internal_r+0x524>
 20049d4:	e100004c 	andi	r4,fp,1
 20049d8:	d8c03115 	stw	r3,196(sp)
 20049dc:	2003961e 	bne	r4,zero,2005838 <___vfprintf_internal_r+0x13b0>
 20049e0:	d8802817 	ldw	r2,160(sp)
 20049e4:	10e3c83a 	sub	r17,r2,r3
 20049e8:	8805883a 	mov	r2,r17
 20049ec:	8a40010e 	bge	r17,r9,20049f4 <___vfprintf_internal_r+0x56c>
 20049f0:	4805883a 	mov	r2,r9
 20049f4:	d8802b15 	stw	r2,172(sp)
 20049f8:	d8003415 	stw	zero,208(sp)
 20049fc:	98803fcc 	andi	r2,r19,255
 2004a00:	1080201c 	xori	r2,r2,128
 2004a04:	10bfe004 	addi	r2,r2,-128
 2004a08:	10000326 	beq	r2,zero,2004a18 <___vfprintf_internal_r+0x590>
 2004a0c:	d8c02b17 	ldw	r3,172(sp)
 2004a10:	18c00044 	addi	r3,r3,1
 2004a14:	d8c02b15 	stw	r3,172(sp)
 2004a18:	e0c0008c 	andi	r3,fp,2
 2004a1c:	d8c02c15 	stw	r3,176(sp)
 2004a20:	18000326 	beq	r3,zero,2004a30 <___vfprintf_internal_r+0x5a8>
 2004a24:	d8c02b17 	ldw	r3,172(sp)
 2004a28:	18c00084 	addi	r3,r3,2
 2004a2c:	d8c02b15 	stw	r3,172(sp)
 2004a30:	e0c0210c 	andi	r3,fp,132
 2004a34:	d8c03015 	stw	r3,192(sp)
 2004a38:	1801f41e 	bne	r3,zero,200520c <___vfprintf_internal_r+0xd84>
 2004a3c:	d9002e17 	ldw	r4,184(sp)
 2004a40:	d8c02b17 	ldw	r3,172(sp)
 2004a44:	20ebc83a 	sub	r21,r4,r3
 2004a48:	0541f00e 	bge	zero,r21,200520c <___vfprintf_internal_r+0xd84>
 2004a4c:	02400404 	movi	r9,16
 2004a50:	d8c02017 	ldw	r3,128(sp)
 2004a54:	d8801f17 	ldw	r2,124(sp)
 2004a58:	4d45710e 	bge	r9,r21,2006020 <___vfprintf_internal_r+0x1b98>
 2004a5c:	014080b4 	movhi	r5,514
 2004a60:	2962ce84 	addi	r5,r5,-29894
 2004a64:	d9403615 	stw	r5,216(sp)
 2004a68:	4827883a 	mov	r19,r9
 2004a6c:	048001c4 	movi	r18,7
 2004a70:	00000306 	br	2004a80 <___vfprintf_internal_r+0x5f8>
 2004a74:	ad7ffc04 	addi	r21,r21,-16
 2004a78:	42000204 	addi	r8,r8,8
 2004a7c:	9d40130e 	bge	r19,r21,2004acc <___vfprintf_internal_r+0x644>
 2004a80:	010080b4 	movhi	r4,514
 2004a84:	18c00404 	addi	r3,r3,16
 2004a88:	10800044 	addi	r2,r2,1
 2004a8c:	2122ce84 	addi	r4,r4,-29894
 2004a90:	41000015 	stw	r4,0(r8)
 2004a94:	44c00115 	stw	r19,4(r8)
 2004a98:	d8c02015 	stw	r3,128(sp)
 2004a9c:	d8801f15 	stw	r2,124(sp)
 2004aa0:	90bff40e 	bge	r18,r2,2004a74 <___vfprintf_internal_r+0x5ec>
 2004aa4:	b809883a 	mov	r4,r23
 2004aa8:	b00b883a 	mov	r5,r22
